(dp0
S'7817'
p1
(dp2
S'suc_calls'
p3
F1.0
sS'asr'
p4
F100.0
sS'without_tg'
p5
I0
sS'trunks'
p6
(dp7
S'117'
p8
(dp9
S'tg_asr'
p10
F100.0
sS'tg_suc_calls'
p11
F1.0
sS'tg_name'
p12
S'\xd0\x91\xd0\xb8\xd0\xbb\xd0\xb0\xd0\xb9\xd0\xbd (\xd0\x92\xd1\x8b\xd0\xbc\xd0\xbf\xd0\xb5\xd0\xbb\xd0\x9a\xd0\xbe\xd0\xbc) \xd0\xb4\xd0\xbe\xd0\xb3.JF053'
p13
sS'tg_calls'
p14
F1.0
sssS'calls'
p15
F1.0
ssS'7815'
p16
(dp17
g3
F2.0
sg4
F100.0
sg5
I0
sg6
(dp18
S'117'
p19
(dp20
g10
F100.0
sg11
F2.0
sg12
g13
sg14
F2.0
sssg15
F2.0
ssS'7812'
p21
(dp22
g3
F7.0
sg4
F70.0
sg5
I0
sg6
(dp23
S'121'
p24
(dp25
g10
F77.777777777777786
sg11
F7.0
sg12
g24
sg14
F9.0
ssS'174'
p26
(dp27
g10
F0.0
sg11
I0
sg12
g26
sg14
F1.0
sssg15
F10.0
ssS'796521'
p28
(dp29
g3
F1.0
sg4
F100.0
sg5
I0
sg6
(dp30
S'174'
p31
(dp32
g10
F100.0
sg11
F1.0
sg12
g31
sg14
F1.0
sssg15
F1.0
ssS'78722'
p33
(dp34
g3
I0
sg4
F0.0
sg5
I0
sg6
(dp35
S'117'
p36
(dp37
g10
F0.0
sg11
I0
sg12
g13
sg14
F1.0
sssg15
F1.0
ssS'73462'
p38
(dp39
g3
F4.0
sg4
F100.0
sg5
I0
sg6
(dp40
S'117'
p41
(dp42
g10
F100.0
sg11
F2.0
sg12
g13
sg14
F2.0
ssS'163'
p43
(dp44
g10
F100.0
sg11
F2.0
sg12
g43
sg14
F2.0
sssg15
F4.0
ssS'79636'
p45
(dp46
g3
F7.0
sg4
F87.5
sg5
I0
sg6
(dp47
S'174'
p48
(dp49
g10
F85.714285714285708
sg11
F6.0
sg12
g48
sg14
F7.0
ssS'163'
p50
(dp51
g10
F100.0
sg11
F1.0
sg12
g50
sg14
F1.0
sssg15
F8.0
ssS'7382'
p52
(dp53
g3
F1.0
sg4
F100.0
sg5
I0
sg6
(dp54
S'117'
p55
(dp56
g10
F100.0
sg11
F1.0
sg12
g13
sg14
F1.0
sssg15
F1.0
ssS'7383'
p57
(dp58
g3
F2.0
sg4
F66.666666666666657
sg5
I0
sg6
(dp59
S'117'
p60
(dp61
g10
F66.666666666666657
sg11
F2.0
sg12
g13
sg14
F3.0
sssg15
F3.0
ssS'790916'
p62
(dp63
g3
I0
sg4
F0.0
sg5
I0
sg6
(dp64
S'174'
p65
(dp66
g10
F0.0
sg11
I0
sg12
g65
sg14
F1.0
sssg15
F1.0
ssS'790396'
p67
(dp68
g3
F3.0
sg4
F100.0
sg5
I0
sg6
(dp69
S'174'
p70
(dp71
g10
F100.0
sg11
F3.0
sg12
g70
sg14
F3.0
sssg15
F3.0
ssS'790397'
p72
(dp73
g3
F1.0
sg4
F100.0
sg5
I0
sg6
(dp74
S'174'
p75
(dp76
g10
F100.0
sg11
F1.0
sg12
g75
sg14
F1.0
sssg15
F1.0
ssS'7384'
p77
(dp78
g3
F1.0
sg4
F100.0
sg5
I0
sg6
(dp79
S'117'
p80
(dp81
g10
F100.0
sg11
F1.0
sg12
g13
sg14
F1.0
sssg15
F1.0
ssS'7385'
p82
(dp83
g3
F1.0
sg4
F100.0
sg5
I0
sg6
(dp84
S'117'
p85
(dp86
g10
F100.0
sg11
F1.0
sg12
g13
sg14
F1.0
sssg15
F1.0
ssS'78312'
p87
(dp88
g3
F1.0
sg4
F50.0
sg5
I0
sg6
(dp89
S'117'
p90
(dp91
g10
F50.0
sg11
F1.0
sg12
g13
sg14
F2.0
sssg15
F2.0
ssS'796378'
p92
(dp93
g3
I0
sg4
F0.0
sg5
I0
sg6
(dp94
S'174'
p95
(dp96
g10
F0.0
sg11
I0
sg12
g95
sg14
F1.0
sssg15
F1.0
ssS'73422'
p97
(dp98
g3
F3.0
sg4
F100.0
sg5
I0
sg6
(dp99
S'117'
p100
(dp101
g10
F100.0
sg11
F3.0
sg12
g13
sg14
F3.0
sssg15
F3.0
ssS'796372'
p102
(dp103
g3
F1.0
sg4
F100.0
sg5
I0
sg6
(dp104
S'174'
p105
(dp106
g10
F100.0
sg11
F1.0
sg12
g105
sg14
F1.0
sssg15
F1.0
ssS'791976'
p107
(dp108
g3
F1.0
sg4
F100.0
sg5
I0
sg6
(dp109
S'121'
p110
(dp111
g10
F100.0
sg11
F1.0
sg12
g110
sg14
F1.0
sssg15
F1.0
ssS'790367'
p112
(dp113
g3
F2.0
sg4
F66.666666666666657
sg5
I0
sg6
(dp114
S'117'
p115
(dp116
g10
F0.0
sg11
I0
sg12
g13
sg14
F1.0
ssS'174'
p117
(dp118
g10
F100.0
sg11
F2.0
sg12
g117
sg14
F2.0
sssg15
F3.0
ssS'790366'
p119
(dp120
g3
F2.0
sg4
F100.0
sg5
I0
sg6
(dp121
S'174'
p122
(dp123
g10
F100.0
sg11
F2.0
sg12
g122
sg14
F2.0
sssg15
F2.0
ssS'796477'
p124
(dp125
g3
F1.0
sg4
F100.0
sg5
I0
sg6
(dp126
S'174'
p127
(dp128
g10
F100.0
sg11
F1.0
sg12
g127
sg14
F1.0
sssg15
F1.0
ssS'790362'
p129
(dp130
g3
F3.0
sg4
F60.0
sg5
I2
sg6
(dp131
S'174'
p132
(dp133
g10
F100.0
sg11
F3.0
sg12
g132
sg14
F3.0
sssg15
F5.0
ssS'790361'
p134
(dp135
g3
F3.0
sg4
F75.0
sg5
I0
sg6
(dp136
S'174'
p137
(dp138
g10
F75.0
sg11
F3.0
sg12
g137
sg14
F4.0
sssg15
F4.0
ssS'790368'
p139
(dp140
g3
F1.0
sg4
F100.0
sg5
I0
sg6
(dp141
S'174'
p142
(dp143
g10
F100.0
sg11
F1.0
sg12
g142
sg14
F1.0
sssg15
F1.0
ssS'796479'
p144
(dp145
g3
F1.0
sg4
F100.0
sg5
I0
sg6
(dp146
S'174'
p147
(dp148
g10
F100.0
sg11
F1.0
sg12
g147
sg14
F1.0
sssg15
F1.0
ssS'791996'
p149
(dp150
g3
F1.0
sg4
F100.0
sg5
I0
sg6
(dp151
S'121'
p152
(dp153
g10
F100.0
sg11
F1.0
sg12
g152
sg14
F1.0
sssg15
F1.0
ssS'78412'
p154
(dp155
g3
F3.0
sg4
F75.0
sg5
I0
sg6
(dp156
S'117'
p157
(dp158
g10
F75.0
sg11
F3.0
sg12
g13
sg14
F4.0
sssg15
F4.0
ssS'7395'
p159
(dp160
g3
F1.0
sg4
F100.0
sg5
I0
sg6
(dp161
S'117'
p162
(dp163
g10
F100.0
sg11
F1.0
sg12
g13
sg14
F1.0
sssg15
F1.0
ssS'7800'
p164
(dp165
g3
F7.0
sg4
F100.0
sg5
I0
sg6
(dp166
S'117'
p167
(dp168
g10
F100.0
sg11
F7.0
sg12
g13
sg14
F7.0
sssg15
F7.0
ssS'792537'
p169
(dp170
g3
F2.0
sg4
F100.0
sg5
I0
sg6
(dp171
S'174'
p172
(dp173
g10
F100.0
sg11
F1.0
sg12
g172
sg14
F1.0
ssS'169'
p174
(dp175
g10
F100.0
sg11
F1.0
sg12
S'\xd0\xa1\xd0\xb8\xd0\xbd\xd1\x82\xd0\xb5\xd1\x80\xd1\x80\xd0\xb0 (\xd0\xbf\xd0\xbe\xd0\xbb\xd1\x83\xd1\x87\xd0\xb0\xd0\xb5\xd0\xbc \xd0\xbd\xd0\xbe\xd0\xbc\xd0\xb5\xd1\x80\xd0\xb0 789-4250\xe2\x80\xa6 7894699) LINK 5 DPC \xd0\xbf\xd0\xbe\xd0\xb8\xd0\xbd\xd1\x82\xd0\xba\xd0\xbe\xd0\xb4 20 \xd0\xbd\xd0\xb0\xd1\x88 \xd0\x9e\xd0\xa0\xd0\xa1 274'
p176
sg14
F1.0
sssg15
F2.0
ssS'7391'
p177
(dp178
g3
I0
sg4
F0.0
sg5
I0
sg6
(dp179
S'117'
p180
(dp181
g10
F0.0
sg11
I0
sg12
g13
sg14
F2.0
sssg15
F2.0
ssS'796459'
p182
(dp183
g3
F2.0
sg4
F100.0
sg5
I0
sg6
(dp184
S'174'
p185
(dp186
g10
F100.0
sg11
F2.0
sg12
g185
sg14
F2.0
sssg15
F2.0
ssS'78632'
p187
(dp188
g3
F3.0
sg4
F75.0
sg5
I0
sg6
(dp189
S'117'
p190
(dp191
g10
F75.0
sg11
F3.0
sg12
g13
sg14
F4.0
sssg15
F4.0
ssS'73472'
p192
(dp193
g3
F1.0
sg4
F100.0
sg5
I0
sg6
(dp194
S'117'
p195
(dp196
g10
F100.0
sg11
F1.0
sg12
g13
sg14
F1.0
sssg15
F1.0
ssS'38044'
p197
(dp198
g3
F1.0
sg4
F50.0
sg5
I0
sg6
(dp199
S'121'
p200
(dp201
g10
F50.0
sg11
F1.0
sg12
g200
sg14
F2.0
sssg15
F2.0
ssS'749651'
p202
(dp203
g3
F1.0
sg4
F100.0
sg5
I0
sg6
(dp204
S'121'
p205
(dp206
g10
F100.0
sg11
F1.0
sg12
g205
sg14
F1.0
sssg15
F1.0
ssS'79031'
p207
(dp208
g3
F14.0
sg4
F82.35294117647058
sg5
I1
sg6
(dp209
S'174'
p210
(dp211
g10
F86.666666666666671
sg11
F13.0
sg12
g210
sg14
F15.0
ssS'163'
p212
(dp213
g10
F100.0
sg11
F1.0
sg12
g212
sg14
F1.0
sssg15
F17.0
ssS'79032'
p214
(dp215
g3
F12.0
sg4
F57.142857142857139
sg5
I0
sg6
(dp216
S'174'
p217
(dp218
g10
F60.0
sg11
F12.0
sg12
g217
sg14
F20.0
ssS'155'
p219
(dp220
g10
F0.0
sg11
I0
sg12
S'A2 M200 link 9 DPC \xd0\xbf\xd0\xbe\xd0\xb8\xd0\xbd\xd1\x82\xd0\xba\xd0\xbe\xd0\xb4 190 \xd0\xbd\xd0\xb0\xd1\x88 OPC 274'
p221
sg14
F1.0
sssg15
F21.0
ssS'749624'
p222
(dp223
g3
I0
sg4
F0.0
sg5
I0
sg6
(dp224
S'117'
p225
(dp226
g10
F0.0
sg11
I0
sg12
g13
sg14
F1.0
sssg15
F1.0
ssS'79035'
p227
(dp228
g3
F24.0
sg4
F82.758620689655174
sg5
I0
sg6
(dp229
S'121'
p230
(dp231
g10
F100.0
sg11
F1.0
sg12
g230
sg14
F1.0
ssS'117'
p232
(dp233
g10
F100.0
sg11
F2.0
sg12
g13
sg14
F2.0
ssS'174'
p234
(dp235
g10
F84.0
sg11
F21.0
sg12
g234
sg14
F25.0
ssS'163'
p236
(dp237
g10
F0.0
sg11
I0
sg12
g236
sg14
F1.0
sssg15
F29.0
ssS'79037'
p238
(dp239
g3
F17.0
sg4
F65.384615384615387
sg5
I1
sg6
(dp240
S'117'
p241
(dp242
g10
F100.0
sg11
F1.0
sg12
g13
sg14
F1.0
ssS'174'
p243
(dp244
g10
F66.666666666666657
sg11
F16.0
sg12
g243
sg14
F24.0
sssg15
F26.0
ssS'786167'
p245
(dp246
g3
F1.0
sg4
F100.0
sg5
I0
sg6
(dp247
S'117'
p248
(dp249
g10
F100.0
sg11
F1.0
sg12
g13
sg14
F1.0
sssg15
F1.0
ssS'749621'
p250
(dp251
g3
F2.0
sg4
F100.0
sg5
I0
sg6
(dp252
S'117'
p253
(dp254
g10
F100.0
sg11
F1.0
sg12
g13
sg14
F1.0
ssS'163'
p255
(dp256
g10
F100.0
sg11
F1.0
sg12
g255
sg14
F1.0
sssg15
F2.0
ssS'371'
p257
(dp258
g3
F1.0
sg4
F100.0
sg5
I0
sg6
(dp259
S'117'
p260
(dp261
g10
F100.0
sg11
F1.0
sg12
g13
sg14
F1.0
sssg15
F1.0
ssS'373'
p262
(dp263
g3
I0
sg4
F0.0
sg5
I0
sg6
(dp264
S'121'
p265
(dp266
g10
F0.0
sg11
I0
sg12
g265
sg14
F1.0
sssg15
F1.0
ssS'7925514'
p267
(dp268
g3
I0
sg4
F0.0
sg5
I0
sg6
(dp269
S'117'
p270
(dp271
g10
F0.0
sg11
I0
sg12
g13
sg14
F1.0
sssg15
F1.0
ssS'7855'
p272
(dp273
g3
F1.0
sg4
F100.0
sg5
I0
sg6
(dp274
S'117'
p275
(dp276
g10
F100.0
sg11
F1.0
sg12
g13
sg14
F1.0
sssg15
F1.0
ssS'74722'
p277
(dp278
g3
I0
sg4
F0.0
sg5
I0
sg6
(dp279
S'174'
p280
(dp281
g10
F0.0
sg11
I0
sg12
g280
sg14
F2.0
sssg15
F2.0
ssS'74822'
p282
(dp283
g3
F1.0
sg4
F50.0
sg5
I0
sg6
(dp284
S'117'
p285
(dp286
g10
F50.0
sg11
F1.0
sg12
g13
sg14
F2.0
sssg15
F2.0
ssS'7910002'
p287
(dp288
g3
F1.0
sg4
F25.0
sg5
I0
sg6
(dp289
S'117'
p290
(dp291
g10
F0.0
sg11
I0
sg12
g13
sg14
F2.0
ssS'174'
p292
(dp293
g10
F50.0
sg11
F1.0
sg12
g292
sg14
F2.0
sssg15
F4.0
ssS'79295'
p294
(dp295
g3
F3.0
sg4
F100.0
sg5
I0
sg6
(dp296
S'117'
p297
(dp298
g10
F100.0
sg11
F2.0
sg12
g13
sg14
F2.0
ssS'174'
p299
(dp300
g10
F100.0
sg11
F1.0
sg12
g299
sg14
F1.0
sssg15
F3.0
ssS'79296'
p301
(dp302
g3
F3.0
sg4
F42.857142857142854
sg5
I0
sg6
(dp303
S'117'
p304
(dp305
g10
F40.0
sg11
F2.0
sg12
g13
sg14
F5.0
ssS'174'
p306
(dp307
g10
F50.0
sg11
F1.0
sg12
g306
sg14
F2.0
sssg15
F7.0
ssS'7872'
p308
(dp309
g3
I0
sg4
F0.0
sg5
I0
sg6
(dp310
g36
(dp311
g10
F0.0
sg11
I0
sg12
g13
sg14
F1.0
sssg15
F1.0
ssS'790915'
p312
(dp313
g3
F1.0
sg4
F100.0
sg5
I0
sg6
(dp314
S'174'
p315
(dp316
g10
F100.0
sg11
F1.0
sg12
g315
sg14
F1.0
sssg15
F1.0
ssS'74712'
p317
(dp318
g3
F1.0
sg4
F100.0
sg5
I0
sg6
(dp319
S'117'
p320
(dp321
g10
F100.0
sg11
F1.0
sg12
g13
sg14
F1.0
sssg15
F1.0
ssS'749627'
p322
(dp323
g3
F1.0
sg4
F100.0
sg5
I0
sg6
(dp324
S'121'
p325
(dp326
g10
F100.0
sg11
F1.0
sg12
g325
sg14
F1.0
sssg15
F1.0
ssS'79299'
p327
(dp328
g3
F6.0
sg4
F85.714285714285708
sg5
I0
sg6
(dp329
S'117'
p330
(dp331
g10
F85.714285714285708
sg11
F6.0
sg12
g13
sg14
F7.0
sssg15
F7.0
ssS'749638'
p332
(dp333
g3
F1.0
sg4
F100.0
sg5
I0
sg6
(dp334
S'121'
p335
(dp336
g10
F100.0
sg11
F1.0
sg12
g335
sg14
F1.0
sssg15
F1.0
ssS'7925309'
p337
(dp338
g3
I0
sg4
F0.0
sg5
I0
sg6
(dp339
S'117'
p340
(dp341
g10
F0.0
sg11
I0
sg12
g13
sg14
F2.0
ssS'163'
p342
(dp343
g10
F0.0
sg11
I0
sg12
g342
sg14
F2.0
sssg15
F4.0
ssS'74832'
p344
(dp345
g3
F2.0
sg4
F100.0
sg5
I0
sg6
(dp346
S'117'
p347
(dp348
g10
F100.0
sg11
F2.0
sg12
g13
sg14
F2.0
sssg15
F2.0
ssS'79686'
p349
(dp350
g3
F2.0
sg4
F100.0
sg5
I0
sg6
(dp351
S'174'
p352
(dp353
g10
F100.0
sg11
F2.0
sg12
g352
sg14
F2.0
sssg15
F2.0
ssS'78332'
p354
(dp355
g3
I0
sg4
F0.0
sg5
I0
sg6
(dp356
S'117'
p357
(dp358
g10
F0.0
sg11
I0
sg12
g13
sg14
F1.0
sssg15
F1.0
ssS'796236'
p359
(dp360
g3
F1.0
sg4
F100.0
sg5
I0
sg6
(dp361
S'174'
p362
(dp363
g10
F100.0
sg11
F1.0
sg12
g362
sg14
F1.0
sssg15
F1.0
ssS'790300'
p364
(dp365
g3
F2.0
sg4
F100.0
sg5
I0
sg6
(dp366
S'174'
p367
(dp368
g10
F100.0
sg11
F2.0
sg12
g367
sg14
F2.0
sssg15
F2.0
ssS'74922'
p369
(dp370
g3
F2.0
sg4
F100.0
sg5
I0
sg6
(dp371
S'117'
p372
(dp373
g10
F100.0
sg11
F2.0
sg12
g13
sg14
F2.0
sssg15
F2.0
ssS'7'
p374
(dp375
g3
F2911.0
sg4
F64.24630324431692
sg5
I619
sg6
(dp376
S'133'
p377
(dp378
g10
F100.0
sg11
F1.0
sg12
g377
sg14
F1.0
ssS'93'
p379
(dp380
g10
F88.888888888888886
sg11
F8.0
sg12
g379
sg14
F9.0
ssS'25'
p381
(dp382
g10
F100.0
sg11
F17.0
sg12
g381
sg14
F17.0
ssS'26'
p383
(dp384
g10
F75.0
sg11
F3.0
sg12
g383
sg14
F4.0
ssS'21'
p385
(dp386
g10
F100.0
sg11
F2.0
sg12
g385
sg14
F2.0
ssS'22'
p387
(dp388
g10
F90.0
sg11
F9.0
sg12
g387
sg14
F10.0
ssS'23'
p389
(dp390
g10
F100.0
sg11
F8.0
sg12
g389
sg14
F8.0
ssS'29'
p391
(dp392
g10
F100.0
sg11
F11.0
sg12
g391
sg14
F11.0
ssS'163'
p393
(dp394
g10
F75.0
sg11
F30.0
sg12
g393
sg14
F40.0
ssS'121'
p395
(dp396
g10
F72.815533980582529
sg11
F150.0
sg12
g395
sg14
F206.0
ssS'122'
p397
(dp398
g10
F100.0
sg11
F8.0
sg12
g397
sg14
F8.0
ssS'124'
p399
(dp400
g10
F100.0
sg11
F5.0
sg12
g399
sg14
F5.0
ssS'125'
p401
(dp402
g10
F100.0
sg11
F1.0
sg12
g401
sg14
F1.0
ssS'126'
p403
(dp404
g10
F100.0
sg11
F1.0
sg12
g403
sg14
F1.0
ssS'127'
p405
(dp406
g10
F42.857142857142854
sg11
F6.0
sg12
g405
sg14
F14.0
ssS'59'
p407
(dp408
g10
F100.0
sg11
F2.0
sg12
g407
sg14
F2.0
ssS'55'
p409
(dp410
g10
F96.341463414634148
sg11
F79.0
sg12
g409
sg14
F82.0
ssS'54'
p411
(dp412
g10
F91.666666666666657
sg11
F11.0
sg12
g411
sg14
F12.0
ssS'56'
p413
(dp414
g10
F87.5
sg11
F28.0
sg12
g413
sg14
F32.0
ssS'52'
p415
(dp416
g10
F100.0
sg11
F1.0
sg12
g415
sg14
F1.0
ssS'114'
p417
(dp418
g10
F100.0
sg11
F3.0
sg12
g417
sg14
F3.0
ssS'117'
p419
(dp420
g10
F70.731707317073173
sg11
F986.0
sg12
g13
sg14
F1394.0
ssS'116'
p421
(dp422
g10
F55.000000000000007
sg11
F11.0
sg12
g421
sg14
F20.0
ssS'111'
p423
(dp424
g10
F100.0
sg11
F4.0
sg12
g423
sg14
F4.0
ssS'113'
p425
(dp426
g10
F100.0
sg11
F2.0
sg12
g425
sg14
F2.0
ssS'83'
p427
(dp428
g10
F70.0
sg11
F14.0
sg12
g427
sg14
F20.0
ssS'119'
p429
(dp430
g10
F100.0
sg11
F2.0
sg12
g429
sg14
F2.0
ssS'118'
p431
(dp432
g10
F100.0
sg11
F1.0
sg12
g431
sg14
F1.0
ssS'85'
p433
(dp434
g10
F66.666666666666657
sg11
F2.0
sg12
S'\xd0\x9f\xd0\xbe\xd0\xbb\xd0\xb5\xd1\x82-\xd0\xa1\xd0\xb2\xd1\x8f\xd0\xb7\xd1\x8c Definity'
p435
sg14
F3.0
ssS'102'
p436
(dp437
g10
F88.888888888888886
sg11
F8.0
sg12
S'\xd0\x9a\xd0\xbe\xd0\xbc\xd1\x81\xd1\x82\xd0\xb0\xd1\x80 (\xd0\x9c\xd0\xa2\xd0\xa1) \xd0\xbc\xd0\xb5\xd1\x81\xd1\x82\xd0\xbd\xd1\x8b\xd0\xb9'
p438
sg14
F9.0
ssS'100'
p439
(dp440
g10
F100.0
sg11
F8.0
sg12
g439
sg14
F8.0
ssS'105'
p441
(dp442
g10
F100.0
sg11
F2.0
sg12
g441
sg14
F2.0
ssS'39'
p443
(dp444
g10
F100.0
sg11
F2.0
sg12
g443
sg14
F2.0
ssS'33'
p445
(dp446
g10
F77.272727272727266
sg11
F17.0
sg12
g445
sg14
F22.0
ssS'30'
p447
(dp448
g10
F100.0
sg11
F1.0
sg12
g447
sg14
F1.0
ssS'37'
p449
(dp450
g10
F89.130434782608688
sg11
F41.0
sg12
g449
sg14
F46.0
ssS'35'
p451
(dp452
g10
F70.588235294117652
sg11
F12.0
sg12
g451
sg14
F17.0
ssS'60'
p453
(dp454
g10
F100.0
sg11
F1.0
sg12
g453
sg14
F1.0
ssS'61'
p455
(dp456
g10
F100.0
sg11
F1.0
sg12
g455
sg14
F1.0
ssS'64'
p457
(dp458
g10
F100.0
sg11
F8.0
sg12
S'\xd0\x9c\xd0\x93\xd0\xa2\xd0\xa1 707  \xd0\x92\xd1\x81\xd0\xb5\xd0\xb2\xd0\xbe\xd0\xbb\xd0\xb6\xd1\x81\xd0\xba\xd0\xb8\xd0\xb9 \xd1\x83\xd0\xb7\xd0\xb5\xd0\xbb'
p459
sg14
F8.0
ssS'69'
p460
(dp461
g10
F100.0
sg11
F12.0
sg12
g460
sg14
F12.0
ssS'174'
p462
(dp463
g10
F55.465587044534416
sg11
F548.0
sg12
g462
sg14
F988.0
ssS'172'
p464
(dp465
g10
F87.5
sg11
F7.0
sg12
g464
sg14
F8.0
ssS'2'
p466
(dp467
g10
F100.0
sg11
F1.0
sg12
g466
sg14
F1.0
ssS'6'
p468
(dp469
g10
F32.653061224489797
sg11
F16.0
sg12
g468
sg14
F49.0
ssS'98'
p470
(dp471
g10
F42.857142857142854
sg11
F6.0
sg12
g470
sg14
F14.0
ssS'169'
p472
(dp473
g10
F62.5
sg11
F5.0
sg12
g176
sg14
F8.0
ssS'91'
p474
(dp475
g10
F100.0
sg11
F16.0
sg12
g474
sg14
F16.0
ssS'90'
p476
(dp477
g10
F62.5
sg11
F5.0
sg12
g476
sg14
F8.0
ssS'166'
p478
(dp479
g10
F75.0
sg11
F3.0
sg12
g478
sg14
F4.0
ssS'167'
p480
(dp481
g10
F75.0
sg11
F3.0
sg12
g480
sg14
F4.0
ssS'95'
p482
(dp483
g10
F100.0
sg11
F1.0
sg12
g482
sg14
F1.0
ssS'97'
p484
(dp485
g10
F66.666666666666657
sg11
F2.0
sg12
S'\xd0\x90\xd0\xa1\xd0\x92\xd0\xa2'
p486
sg14
F3.0
ssS'96'
p487
(dp488
g10
F75.0
sg11
F3.0
sg12
g487
sg14
F4.0
ssS'10'
p489
(dp490
g10
F71.428571428571431
sg11
F5.0
sg12
g489
sg14
F7.0
ssS'17'
p491
(dp492
g10
F40.0
sg11
F4.0
sg12
S'\xd0\x91\xd0\xb8\xd0\xbb\xd0\xbb\xd0\xb0\xd0\xb9\xd0\xbd(\xd0\x92\xd1\x8b\xd0\xbc\xd0\xbf\xd0\xb5\xd0\xbb\xd0\xba\xd0\xbe\xd0\xbc)   \xd0\x9d\xd0\x9e0003 - \xd0\xba\xd0\xbb\xd0\xb8\xd0\xb5\xd0\xbd\xd1\x82\xd1\x8b \xd0\xa1\xd0\xbe\xd0\xb2\xd0\xb8\xd0\xbd\xd1\x82\xd0\xb5\xd0\xbb\xd0\xb0 \xd0\xbd\xd0\xb0 \xd0\x90\xd0\xbb\xd0\xba\xd0\xb0\xd1\x82\xd0\xb5\xd0\xbb\xd0\xb5'
p493
sg14
F10.0
ssS'88'
p494
(dp495
g10
F100.0
sg11
F3.0
sg12
g494
sg14
F3.0
ssS'150'
p496
(dp497
g10
F100.0
sg11
F20.0
sg12
g496
sg14
F20.0
ssS'153'
p498
(dp499
g10
F87.5
sg11
F14.0
sg12
S'\xd0\x9d\xd0\x98\xd0\x98\xd0\xa1\xd0\x90'
p500
sg14
F16.0
ssS'155'
p501
(dp502
g10
F57.142857142857139
sg11
F8.0
sg12
g221
sg14
F14.0
ssS'157'
p503
(dp504
g10
F100.0
sg11
F14.0
sg12
g503
sg14
F14.0
ssS'156'
p505
(dp506
g10
F100.0
sg11
F1.0
sg12
g505
sg14
F1.0
ssS'159'
p507
(dp508
g10
F80.0
sg11
F4.0
sg12
g507
sg14
F5.0
ssS'158'
p509
(dp510
g10
F85.714285714285708
sg11
F6.0
sg12
g509
sg14
F7.0
ssS'48'
p511
(dp512
g10
F50.0
sg11
F1.0
sg12
g511
sg14
F2.0
ssS'49'
p513
(dp514
g10
F94.117647058823522
sg11
F16.0
sg12
g513
sg14
F17.0
ssS'46'
p515
(dp516
g10
F100.0
sg11
F7.0
sg12
g515
sg14
F7.0
ssS'44'
p517
(dp518
g10
F81.818181818181827
sg11
F9.0
sg12
g517
sg14
F11.0
ssS'45'
p519
(dp520
g10
F88.0
sg11
F44.0
sg12
g519
sg14
F50.0
ssS'42'
p521
(dp522
g10
F100.0
sg11
F3.0
sg12
g521
sg14
F3.0
ssS'43'
p523
(dp524
g10
F100.0
sg11
F5.0
sg12
S'\xd0\x9d\xd0\xbe\xd0\xb2\xd1\x8b\xd0\xb5 \xd0\xa1\xd0\xb8\xd1\x81\xd1\x82\xd0\xb5\xd0\xbc\xd1\x8b \xd0\xa2\xd0\x9a\xd0\x9a'
p525
sg14
F5.0
ssS'40'
p526
(dp527
g10
F100.0
sg11
F1.0
sg12
g526
sg14
F1.0
ssS'41'
p528
(dp529
g10
F75.0
sg11
F6.0
sg12
g528
sg14
F8.0
ssS'5'
p530
(dp531
g10
F100.0
sg11
F1.0
sg12
g530
sg14
F1.0
ssS'146'
p532
(dp533
g10
F100.0
sg11
F1.0
sg12
g532
sg14
F1.0
ssS'147'
p534
(dp535
g10
F90.909090909090907
sg11
F30.0
sg12
g534
sg14
F33.0
ssS'144'
p536
(dp537
g10
F100.0
sg11
F2.0
sg12
g536
sg14
F2.0
ssS'145'
p538
(dp539
g10
F95.454545454545453
sg11
F21.0
sg12
g538
sg14
F22.0
ssS'143'
p540
(dp541
g10
F100.0
sg11
F2.0
sg12
g540
sg14
F2.0
ssS'77'
p542
(dp543
g10
F100.0
sg11
F6.0
sg12
g542
sg14
F6.0
ssS'75'
p544
(dp545
g10
F100.0
sg11
F18.0
sg12
g544
sg14
F18.0
ssS'73'
p546
(dp547
g10
F100.0
sg11
F1.0
sg12
g546
sg14
F1.0
ssS'71'
p548
(dp549
g10
F72.222222222222214
sg11
F13.0
sg12
g548
sg14
F18.0
ssS'70'
p550
(dp551
g10
F93.333333333333329
sg11
F14.0
sg12
g550
sg14
F15.0
ssS'79'
p552
(dp553
g10
F100.0
sg11
F3.0
sg12
g552
sg14
F3.0
ssS'78'
p554
(dp555
g10
F93.135011441647592
sg11
F407.0
sg12
g554
sg14
F437.0
sssg15
F4531.0
ssS'78432'
p556
(dp557
g3
F2.0
sg4
F100.0
sg5
I0
sg6
(dp558
S'117'
p559
(dp560
g10
F100.0
sg11
F2.0
sg12
g13
sg14
F2.0
sssg15
F2.0
ssS'796452'
p561
(dp562
g3
F2.0
sg4
F100.0
sg5
I0
sg6
(dp563
S'174'
p564
(dp565
g10
F100.0
sg11
F2.0
sg12
g564
sg14
F2.0
sssg15
F2.0
ssS'796451'
p566
(dp567
g3
F1.0
sg4
F100.0
sg5
I0
sg6
(dp568
S'174'
p569
(dp570
g10
F100.0
sg11
F1.0
sg12
g569
sg14
F1.0
sssg15
F1.0
ssS'78612'
p571
(dp572
g3
F2.0
sg4
F66.666666666666657
sg5
I0
sg6
(dp573
S'117'
p574
(dp575
g10
F66.666666666666657
sg11
F2.0
sg12
g13
sg14
F3.0
sssg15
F3.0
ssS'74732'
p576
(dp577
g3
F2.0
sg4
F12.5
sg5
I0
sg6
(dp578
S'117'
p579
(dp580
g10
F22.222222222222221
sg11
F2.0
sg12
g13
sg14
F9.0
ssS'174'
p581
(dp582
g10
F0.0
sg11
I0
sg12
g581
sg14
F7.0
sssg15
F16.0
ssS'380'
p583
(dp584
g3
F10.0
sg4
F62.5
sg5
I0
sg6
(dp585
g200
(dp586
g10
F50.0
sg11
F2.0
sg12
g200
sg14
F4.0
ssS'117'
p587
(dp588
g10
F66.666666666666657
sg11
F8.0
sg12
g13
sg14
F12.0
sssg15
F16.0
ssS'7866'
p589
(dp590
g3
I0
sg4
F0.0
sg5
I0
sg6
(dp591
S'117'
p592
(dp593
g10
F0.0
sg11
I0
sg12
g13
sg14
F1.0
sssg15
F1.0
ssS'78452'
p594
(dp595
g3
F1.0
sg4
F100.0
sg5
I0
sg6
(dp596
S'117'
p597
(dp598
g10
F100.0
sg11
F1.0
sg12
g13
sg14
F1.0
sssg15
F1.0
ssS'7863'
p599
(dp600
g3
F7.0
sg4
F87.5
sg5
I0
sg6
(dp601
S'117'
p602
(dp603
g10
F87.5
sg11
F7.0
sg12
g13
sg14
F8.0
sssg15
F8.0
ssS'7862'
p604
(dp605
g3
F1.0
sg4
F100.0
sg5
I0
sg6
(dp606
S'117'
p607
(dp608
g10
F100.0
sg11
F1.0
sg12
g13
sg14
F1.0
sssg15
F1.0
ssS'7861'
p609
(dp610
g3
F4.0
sg4
F80.0
sg5
I0
sg6
(dp611
g574
(dp612
g10
F80.0
sg11
F4.0
sg12
g13
sg14
F5.0
sssg15
F5.0
ssS'790969'
p613
(dp614
g3
F5.0
sg4
F62.5
sg5
I0
sg6
(dp615
S'174'
p616
(dp617
g10
F62.5
sg11
F5.0
sg12
g616
sg14
F8.0
sssg15
F8.0
ssS'790968'
p618
(dp619
g3
I0
sg4
F0.0
sg5
I0
sg6
(dp620
S'174'
p621
(dp622
g10
F0.0
sg11
I0
sg12
g621
sg14
F1.0
sssg15
F1.0
ssS'7925506'
p623
(dp624
g3
F1.0
sg4
F50.0
sg5
I0
sg6
(dp625
S'117'
p626
(dp627
g10
F50.0
sg11
F1.0
sg12
g13
sg14
F2.0
sssg15
F2.0
ssS'33'
p628
(dp629
g3
F5.0
sg4
F33.333333333333329
sg5
I0
sg6
(dp630
S'117'
p631
(dp632
g10
F66.666666666666657
sg11
F2.0
sg12
g13
sg14
F3.0
ssS'174'
p633
(dp634
g10
F25.0
sg11
F3.0
sg12
g633
sg14
F12.0
sssg15
F15.0
ssS'790967'
p635
(dp636
g3
F1.0
sg4
F100.0
sg5
I0
sg6
(dp637
S'174'
p638
(dp639
g10
F100.0
sg11
F1.0
sg12
g638
sg14
F1.0
sssg15
F1.0
ssS'796543'
p640
(dp641
g3
I0
sg4
F0.0
sg5
I0
sg6
(dp642
S'174'
p643
(dp644
g10
F0.0
sg11
I0
sg12
g643
sg14
F3.0
sssg15
F3.0
ssS'790963'
p645
(dp646
g3
I0
sg4
F0.0
sg5
I0
sg6
(dp647
S'121'
p648
(dp649
g10
F0.0
sg11
I0
sg12
g648
sg14
F1.0
sssg15
F1.0
ssS'790962'
p650
(dp651
g3
F2.0
sg4
F100.0
sg5
I0
sg6
(dp652
S'174'
p653
(dp654
g10
F100.0
sg11
F2.0
sg12
g653
sg14
F2.0
sssg15
F2.0
ssS'74932'
p655
(dp656
g3
F2.0
sg4
F100.0
sg5
I0
sg6
(dp657
S'121'
p658
(dp659
g10
F100.0
sg11
F2.0
sg12
g658
sg14
F2.0
sssg15
F2.0
ssS'7424'
p660
(dp661
g3
I0
sg4
F0.0
sg5
I0
sg6
(dp662
S'117'
p663
(dp664
g10
F0.0
sg11
I0
sg12
g13
sg14
F1.0
sssg15
F1.0
ssS'73912'
p665
(dp666
g3
I0
sg4
F0.0
sg5
I0
sg6
(dp667
g180
(dp668
g10
F0.0
sg11
I0
sg12
g13
sg14
F2.0
sssg15
F2.0
ssS'73843'
p669
(dp670
g3
F1.0
sg4
F100.0
sg5
I0
sg6
(dp671
g80
(dp672
g10
F100.0
sg11
F1.0
sg12
g13
sg14
F1.0
sssg15
F1.0
ssS'79057'
p673
(dp674
g3
F15.0
sg4
F83.333333333333343
sg5
I0
sg6
(dp675
S'121'
p676
(dp677
g10
F66.666666666666657
sg11
F2.0
sg12
g676
sg14
F3.0
ssS'174'
p678
(dp679
g10
F85.714285714285708
sg11
F12.0
sg12
g678
sg14
F14.0
ssS'163'
p680
(dp681
g10
F100.0
sg11
F1.0
sg12
g680
sg14
F1.0
sssg15
F18.0
ssS'79055'
p682
(dp683
g3
F8.0
sg4
F53.333333333333336
sg5
I0
sg6
(dp684
S'121'
p685
(dp686
g10
F100.0
sg11
F1.0
sg12
g685
sg14
F1.0
ssS'174'
p687
(dp688
g10
F53.846153846153847
sg11
F7.0
sg12
g687
sg14
F13.0
ssS'163'
p689
(dp690
g10
F0.0
sg11
I0
sg12
g689
sg14
F1.0
sssg15
F15.0
ssS'791972'
p691
(dp692
g3
I0
sg4
F0.0
sg5
I0
sg6
(dp693
S'117'
p694
(dp695
g10
F0.0
sg11
I0
sg12
g13
sg14
F1.0
sssg15
F1.0
ssS'749644'
p696
(dp697
g3
F2.0
sg4
F100.0
sg5
I0
sg6
(dp698
S'121'
p699
(dp700
g10
F100.0
sg11
F2.0
sg12
g699
sg14
F2.0
sssg15
F2.0
ssS'79670'
p701
(dp702
g3
F2.0
sg4
F66.666666666666657
sg5
I0
sg6
(dp703
S'174'
p704
(dp705
g10
F66.666666666666657
sg11
F2.0
sg12
g704
sg14
F3.0
sssg15
F3.0
ssS'79671'
p706
(dp707
g3
F2.0
sg4
F100.0
sg5
I0
sg6
(dp708
S'174'
p709
(dp710
g10
F100.0
sg11
F2.0
sg12
g709
sg14
F2.0
sssg15
F2.0
ssS'74842'
p711
(dp712
g3
F2.0
sg4
F100.0
sg5
I0
sg6
(dp713
S'117'
p714
(dp715
g10
F100.0
sg11
F2.0
sg12
g13
sg14
F2.0
sssg15
F2.0
ssS'7496'
p716
(dp717
g3
F16.0
sg4
F59.259259259259252
sg5
I0
sg6
(dp718
S'121'
p719
(dp720
g10
F58.333333333333336
sg11
F14.0
sg12
g719
sg14
F24.0
ssg225
(dp721
g10
F50.0
sg11
F1.0
sg12
g13
sg14
F2.0
ssg255
(dp722
g10
F100.0
sg11
F1.0
sg12
g255
sg14
F1.0
sssg15
F27.0
ssS'7346'
p723
(dp724
g3
F4.0
sg4
F100.0
sg5
I0
sg6
(dp725
g41
(dp726
g10
F100.0
sg11
F2.0
sg12
g13
sg14
F2.0
ssg43
(dp727
g10
F100.0
sg11
F2.0
sg12
g43
sg14
F2.0
sssg15
F4.0
ssS'7347'
p728
(dp729
g3
F3.0
sg4
F100.0
sg5
I0
sg6
(dp730
S'117'
p731
(dp732
g10
F100.0
sg11
F3.0
sg12
g13
sg14
F3.0
sssg15
F3.0
ssS'749653'
p733
(dp734
g3
I0
sg4
F0.0
sg5
I0
sg6
(dp735
S'121'
p736
(dp737
g10
F0.0
sg11
I0
sg12
g736
sg14
F3.0
sssg15
F3.0
ssS'7345'
p738
(dp739
g3
F1.0
sg4
F100.0
sg5
I0
sg6
(dp740
S'117'
p741
(dp742
g10
F100.0
sg11
F1.0
sg12
g13
sg14
F1.0
sssg15
F1.0
ssS'7342'
p743
(dp744
g3
F3.0
sg4
F100.0
sg5
I0
sg6
(dp745
g100
(dp746
g10
F100.0
sg11
F3.0
sg12
g13
sg14
F3.0
sssg15
F3.0
ssS'7343'
p747
(dp748
g3
F3.0
sg4
F30.0
sg5
I0
sg6
(dp749
S'117'
p750
(dp751
g10
F50.0
sg11
F3.0
sg12
g13
sg14
F6.0
ssS'17'
p752
(dp753
g10
F0.0
sg11
I0
sg12
g493
sg14
F4.0
sssg15
F10.0
ssS'749656'
p754
(dp755
g3
F5.0
sg4
F100.0
sg5
I0
sg6
(dp756
g719
(dp757
g10
F100.0
sg11
F5.0
sg12
g719
sg14
F5.0
sssg15
F5.0
ssS'783145'
p758
(dp759
g3
I0
sg4
F0.0
sg5
I0
sg6
(dp760
S'117'
p761
(dp762
g10
F0.0
sg11
I0
sg12
g13
sg14
F1.0
sssg15
F1.0
ssS'783143'
p763
(dp764
g3
F2.0
sg4
F100.0
sg5
I0
sg6
(dp765
S'117'
p766
(dp767
g10
F100.0
sg11
F2.0
sg12
g13
sg14
F2.0
sssg15
F2.0
ssS'7916'
p768
(dp769
g3
F117.0
sg4
F70.909090909090907
sg5
I0
sg6
(dp770
S'121'
p771
(dp772
g10
F100.0
sg11
F3.0
sg12
g771
sg14
F3.0
ssS'117'
p773
(dp774
g10
F68.269230769230774
sg11
F71.0
sg12
g13
sg14
F104.0
ssS'174'
p775
(dp776
g10
F74.509803921568633
sg11
F38.0
sg12
g775
sg14
F51.0
ssS'155'
p777
(dp778
g10
F100.0
sg11
F1.0
sg12
g221
sg14
F1.0
ssS'163'
p779
(dp780
g10
F66.666666666666657
sg11
F4.0
sg12
g779
sg14
F6.0
sssg15
F165.0
ssS'7349'
p781
(dp782
g3
F1.0
sg4
F100.0
sg5
I0
sg6
(dp783
S'117'
p784
(dp785
g10
F100.0
sg11
F1.0
sg12
g13
sg14
F1.0
sssg15
F1.0
ssS'7498'
p786
(dp787
g3
F4.0
sg4
F33.333333333333329
sg5
I0
sg6
(dp788
g419
(dp789
g10
F44.444444444444443
sg11
F4.0
sg12
g13
sg14
F9.0
ssS'174'
p790
(dp791
g10
F0.0
sg11
I0
sg12
g790
sg14
F3.0
sssg15
F12.0
ssS'7499'
p792
(dp793
g3
F228.0
sg4
F69.938650306748457
sg5
I5
sg6
(dp794
S'147'
p795
(dp796
g10
F100.0
sg11
F5.0
sg12
g795
sg14
F5.0
ssg501
(dp797
g10
F100.0
sg11
F2.0
sg12
g221
sg14
F2.0
ssS'22'
p798
(dp799
g10
F100.0
sg11
F2.0
sg12
g798
sg14
F2.0
ssS'10'
p800
(dp801
g10
F100.0
sg11
F1.0
sg12
g800
sg14
F1.0
ssg509
(dp802
g10
F50.0
sg11
F1.0
sg12
g509
sg14
F2.0
ssS'45'
p803
(dp804
g10
F87.5
sg11
F14.0
sg12
g803
sg14
F16.0
ssg393
(dp805
g10
F100.0
sg11
F4.0
sg12
g393
sg14
F4.0
ssg397
(dp806
g10
F100.0
sg11
F8.0
sg12
g397
sg14
F8.0
ssS'43'
p807
(dp808
g10
F100.0
sg11
F3.0
sg12
g525
sg14
F3.0
ssS'121'
p809
(dp810
g10
F80.0
sg11
F20.0
sg12
g809
sg14
F25.0
ssS'117'
p811
(dp812
g10
F58.219178082191782
sg11
F85.0
sg12
g13
sg14
F146.0
ssg457
(dp813
g10
F100.0
sg11
F3.0
sg12
g459
sg14
F3.0
ssS'37'
p814
(dp815
g10
F100.0
sg11
F2.0
sg12
g814
sg14
F2.0
ssS'71'
p816
(dp817
g10
F100.0
sg11
F2.0
sg12
g816
sg14
F2.0
ssS'83'
p818
(dp819
g10
F75.0
sg11
F3.0
sg12
g818
sg14
F4.0
ssg436
(dp820
g10
F88.888888888888886
sg11
F8.0
sg12
g438
sg14
F9.0
ssg423
(dp821
g10
F100.0
sg11
F4.0
sg12
g423
sg14
F4.0
ssS'174'
p822
(dp823
g10
F59.322033898305079
sg11
F35.0
sg12
g822
sg14
F59.0
ssS'70'
p824
(dp825
g10
F100.0
sg11
F2.0
sg12
g824
sg14
F2.0
ssS'78'
p826
(dp827
g10
F90.909090909090907
sg11
F20.0
sg12
g826
sg14
F22.0
sssg15
F326.0
ssS'73852'
p828
(dp829
g3
F1.0
sg4
F100.0
sg5
I0
sg6
(dp830
g85
(dp831
g10
F100.0
sg11
F1.0
sg12
g13
sg14
F1.0
sssg15
F1.0
ssS'7492'
p832
(dp833
g3
F5.0
sg4
F83.333333333333343
sg5
I0
sg6
(dp834
S'117'
p835
(dp836
g10
F83.333333333333343
sg11
F5.0
sg12
g13
sg14
F6.0
sssg15
F6.0
ssS'7493'
p837
(dp838
g3
F2.0
sg4
F100.0
sg5
I0
sg6
(dp839
g658
(dp840
g10
F100.0
sg11
F2.0
sg12
g658
sg14
F2.0
sssg15
F2.0
ssS'7491'
p841
(dp842
g3
F1.0
sg4
F100.0
sg5
I0
sg6
(dp843
S'117'
p844
(dp845
g10
F100.0
sg11
F1.0
sg12
g13
sg14
F1.0
sssg15
F1.0
ssS'79104'
p846
(dp847
g3
F15.0
sg4
F78.94736842105263
sg5
I0
sg6
(dp848
S'117'
p849
(dp850
g10
F75.0
sg11
F9.0
sg12
g13
sg14
F12.0
ssS'174'
p851
(dp852
g10
F85.714285714285708
sg11
F6.0
sg12
g851
sg14
F7.0
sssg15
F19.0
ssS'7495'
p853
(dp854
g3
F1898.0
sg4
F62.640264026402633
sg5
I597
sg6
(dp855
g496
(dp856
g10
F100.0
sg11
F20.0
sg12
g496
sg14
F20.0
ssg498
(dp857
g10
F87.5
sg11
F14.0
sg12
g500
sg14
F16.0
ssg447
(dp858
g10
F100.0
sg11
F1.0
sg12
g447
sg14
F1.0
ssg464
(dp859
g10
F87.5
sg11
F7.0
sg12
g464
sg14
F8.0
ssg403
(dp860
g10
F100.0
sg11
F1.0
sg12
g403
sg14
F1.0
ssg503
(dp861
g10
F100.0
sg11
F14.0
sg12
g503
sg14
F14.0
ssg441
(dp862
g10
F100.0
sg11
F2.0
sg12
g441
sg14
F2.0
ssg507
(dp863
g10
F80.0
sg11
F4.0
sg12
g507
sg14
F5.0
ssS'158'
p864
(dp865
g10
F100.0
sg11
F5.0
sg12
g864
sg14
F5.0
ssg550
(dp866
g10
F92.307692307692307
sg11
F12.0
sg12
g550
sg14
F13.0
ssg391
(dp867
g10
F100.0
sg11
F11.0
sg12
g391
sg14
F11.0
ssg377
(dp868
g10
F100.0
sg11
F1.0
sg12
g377
sg14
F1.0
ssg417
(dp869
g10
F100.0
sg11
F3.0
sg12
g417
sg14
F3.0
ssS'117'
p870
(dp871
g10
F79.933110367892979
sg11
F478.0
sg12
g13
sg14
F598.0
ssg421
(dp872
g10
F55.000000000000007
sg11
F11.0
sg12
g421
sg14
F20.0
ssS'64'
p873
(dp874
g10
F100.0
sg11
F5.0
sg12
g459
sg14
F5.0
ssg513
(dp875
g10
F93.333333333333329
sg11
F14.0
sg12
g513
sg14
F15.0
ssg425
(dp876
g10
F100.0
sg11
F2.0
sg12
g425
sg14
F2.0
ssg427
(dp877
g10
F68.75
sg11
F11.0
sg12
g427
sg14
F16.0
ssg460
(dp878
g10
F100.0
sg11
F12.0
sg12
g460
sg14
F12.0
ssg462
(dp879
g10
F41.807909604519772
sg11
F222.0
sg12
g462
sg14
F531.0
ssg429
(dp880
g10
F100.0
sg11
F2.0
sg12
g429
sg14
F2.0
ssg439
(dp881
g10
F100.0
sg11
F8.0
sg12
g439
sg14
F8.0
ssg433
(dp882
g10
F66.666666666666657
sg11
F2.0
sg12
g435
sg14
F3.0
ssg381
(dp883
g10
F100.0
sg11
F17.0
sg12
g381
sg14
F17.0
ssg383
(dp884
g10
F66.666666666666657
sg11
F2.0
sg12
g383
sg14
F3.0
ssg385
(dp885
g10
F100.0
sg11
F2.0
sg12
g385
sg14
F2.0
ssg387
(dp886
g10
F87.5
sg11
F7.0
sg12
g387
sg14
F8.0
ssg389
(dp887
g10
F100.0
sg11
F8.0
sg12
g389
sg14
F8.0
ssg515
(dp888
g10
F100.0
sg11
F7.0
sg12
g515
sg14
F7.0
ssg517
(dp889
g10
F81.818181818181827
sg11
F9.0
sg12
g517
sg14
F11.0
ssg519
(dp890
g10
F88.235294117647058
sg11
F30.0
sg12
g519
sg14
F34.0
ssg521
(dp891
g10
F100.0
sg11
F3.0
sg12
g521
sg14
F3.0
ssg523
(dp892
g10
F100.0
sg11
F2.0
sg12
g525
sg14
F2.0
ssg526
(dp893
g10
F100.0
sg11
F1.0
sg12
g526
sg14
F1.0
ssg528
(dp894
g10
F75.0
sg11
F6.0
sg12
g528
sg14
F8.0
ssg487
(dp895
g10
F75.0
sg11
F3.0
sg12
g487
sg14
F4.0
ssg466
(dp896
g10
F100.0
sg11
F1.0
sg12
g466
sg14
F1.0
ssg552
(dp897
g10
F100.0
sg11
F3.0
sg12
g552
sg14
F3.0
ssg468
(dp898
g10
F31.25
sg11
F15.0
sg12
g468
sg14
F48.0
ssS'155'
p899
(dp900
g10
F80.0
sg11
F4.0
sg12
g221
sg14
F5.0
ssS'163'
p901
(dp902
g10
F75.0
sg11
F6.0
sg12
g901
sg14
F8.0
ssg478
(dp903
g10
F75.0
sg11
F3.0
sg12
g478
sg14
F4.0
ssg505
(dp904
g10
F100.0
sg11
F1.0
sg12
g505
sg14
F1.0
ssg532
(dp905
g10
F100.0
sg11
F1.0
sg12
g532
sg14
F1.0
ssg534
(dp906
g10
F89.285714285714292
sg11
F25.0
sg12
g534
sg14
F28.0
ssg536
(dp907
g10
F100.0
sg11
F2.0
sg12
g536
sg14
F2.0
ssg538
(dp908
g10
F95.454545454545453
sg11
F21.0
sg12
g538
sg14
F22.0
ssg540
(dp909
g10
F100.0
sg11
F2.0
sg12
g540
sg14
F2.0
ssg453
(dp910
g10
F100.0
sg11
F1.0
sg12
g453
sg14
F1.0
ssg542
(dp911
g10
F100.0
sg11
F6.0
sg12
g542
sg14
F6.0
ssS'121'
p912
(dp913
g10
F73.643410852713174
sg11
F95.0
sg12
g912
sg14
F129.0
ssg544
(dp914
g10
F100.0
sg11
F18.0
sg12
g544
sg14
F18.0
ssg399
(dp915
g10
F100.0
sg11
F5.0
sg12
g399
sg14
F5.0
ssg401
(dp916
g10
F100.0
sg11
F1.0
sg12
g401
sg14
F1.0
ssg548
(dp917
g10
F68.75
sg11
F11.0
sg12
g548
sg14
F16.0
ssg405
(dp918
g10
F42.857142857142854
sg11
F6.0
sg12
g405
sg14
F14.0
ssg474
(dp919
g10
F100.0
sg11
F16.0
sg12
g474
sg14
F16.0
ssg476
(dp920
g10
F62.5
sg11
F5.0
sg12
g476
sg14
F8.0
ssg379
(dp921
g10
F88.888888888888886
sg11
F8.0
sg12
g379
sg14
F9.0
ssg482
(dp922
g10
F100.0
sg11
F1.0
sg12
g482
sg14
F1.0
ssg484
(dp923
g10
F66.666666666666657
sg11
F2.0
sg12
g486
sg14
F3.0
ssg554
(dp924
g10
F93.253012048192772
sg11
F387.0
sg12
g554
sg14
F415.0
ssg431
(dp925
g10
F100.0
sg11
F1.0
sg12
g431
sg14
F1.0
ssg489
(dp926
g10
F66.666666666666657
sg11
F4.0
sg12
g489
sg14
F6.0
ssg443
(dp927
g10
F100.0
sg11
F2.0
sg12
g443
sg14
F2.0
ssg407
(dp928
g10
F100.0
sg11
F2.0
sg12
g407
sg14
F2.0
ssg511
(dp929
g10
F50.0
sg11
F1.0
sg12
g511
sg14
F2.0
ssg491
(dp930
g10
F60.0
sg11
F3.0
sg12
g493
sg14
F5.0
ssg470
(dp931
g10
F42.857142857142854
sg11
F6.0
sg12
g470
sg14
F14.0
ssg409
(dp932
g10
F96.341463414634148
sg11
F79.0
sg12
g409
sg14
F82.0
ssg411
(dp933
g10
F91.666666666666657
sg11
F11.0
sg12
g411
sg14
F12.0
ssg413
(dp934
g10
F87.5
sg11
F28.0
sg12
g413
sg14
F32.0
ssg449
(dp935
g10
F88.63636363636364
sg11
F39.0
sg12
g449
sg14
F44.0
ssg494
(dp936
g10
F100.0
sg11
F3.0
sg12
g494
sg14
F3.0
ssg451
(dp937
g10
F70.588235294117652
sg11
F12.0
sg12
g451
sg14
F17.0
ssg415
(dp938
g10
F100.0
sg11
F1.0
sg12
g415
sg14
F1.0
ssg445
(dp939
g10
F80.952380952380949
sg11
F17.0
sg12
g445
sg14
F21.0
ssg455
(dp940
g10
F100.0
sg11
F1.0
sg12
g455
sg14
F1.0
ssg546
(dp941
g10
F100.0
sg11
F1.0
sg12
g546
sg14
F1.0
sssg15
F3030.0
ssS'73452'
p942
(dp943
g3
F1.0
sg4
F100.0
sg5
I0
sg6
(dp944
g741
(dp945
g10
F100.0
sg11
F1.0
sg12
g13
sg14
F1.0
sssg15
F1.0
ssS'7411'
p946
(dp947
g3
I0
sg4
F0.0
sg5
I0
sg6
(dp948
S'117'
p949
(dp950
g10
F0.0
sg11
I0
sg12
g13
sg14
F4.0
sssg15
F4.0
ssS'7985'
p951
(dp952
g3
F23.0
sg4
F60.526315789473685
sg5
I1
sg6
(dp953
S'117'
p954
(dp955
g10
F60.0
sg11
F12.0
sg12
g13
sg14
F20.0
ssS'174'
p956
(dp957
g10
F62.5
sg11
F10.0
sg12
g956
sg14
F16.0
ssS'163'
p958
(dp959
g10
F100.0
sg11
F1.0
sg12
g958
sg14
F1.0
sssg15
F38.0
ssS'79060'
p960
(dp961
g3
F12.0
sg4
F75.0
sg5
I0
sg6
(dp962
S'174'
p963
(dp964
g10
F78.571428571428569
sg11
F11.0
sg12
g963
sg14
F14.0
ssS'163'
p965
(dp966
g10
F50.0
sg11
F1.0
sg12
g965
sg14
F2.0
sssg15
F16.0
ssS'79067'
p967
(dp968
g3
F9.0
sg4
F75.0
sg5
I0
sg6
(dp969
S'174'
p970
(dp971
g10
F75.0
sg11
F9.0
sg12
g970
sg14
F12.0
sssg15
F12.0
ssS'7926'
p972
(dp973
g3
F145.0
sg4
F74.358974358974365
sg5
I0
sg6
(dp974
S'117'
p975
(dp976
g10
F73.75886524822694
sg11
F104.0
sg12
g13
sg14
F141.0
ssS'174'
p977
(dp978
g10
F77.777777777777786
sg11
F35.0
sg12
g977
sg14
F45.0
ssg472
(dp979
g10
F57.142857142857139
sg11
F4.0
sg12
g176
sg14
F7.0
ssS'163'
p980
(dp981
g10
F100.0
sg11
F2.0
sg12
g980
sg14
F2.0
sssg15
F195.0
ssS'73432'
p982
(dp983
g3
I0
sg4
F0.0
sg5
I0
sg6
(dp984
g750
(dp985
g10
F0.0
sg11
I0
sg12
g13
sg14
F2.0
ssS'17'
p986
(dp987
g10
F0.0
sg11
I0
sg12
g493
sg14
F2.0
sssg15
F4.0
ssS'73433'
p988
(dp989
g3
F2.0
sg4
F50.0
sg5
I0
sg6
(dp990
S'117'
p991
(dp992
g10
F100.0
sg11
F2.0
sg12
g13
sg14
F2.0
ssg752
(dp993
g10
F0.0
sg11
I0
sg12
g493
sg14
F2.0
sssg15
F4.0
ssS'74964'
p994
(dp995
g3
F4.0
sg4
F100.0
sg5
I0
sg6
(dp996
g699
(dp997
g10
F100.0
sg11
F4.0
sg12
g699
sg14
F4.0
sssg15
F4.0
ssS'796527'
p998
(dp999
g3
I0
sg4
F0.0
sg5
I0
sg6
(dp1000
S'174'
p1001
(dp1002
g10
F0.0
sg11
I0
sg12
g1001
sg14
F1.0
sssg15
F1.0
ssS'7484'
p1003
(dp1004
g3
F2.0
sg4
F100.0
sg5
I0
sg6
(dp1005
g714
(dp1006
g10
F100.0
sg11
F2.0
sg12
g13
sg14
F2.0
sssg15
F2.0
ssS'74112'
p1007
(dp1008
g3
I0
sg4
F0.0
sg5
I0
sg6
(dp1009
S'117'
p1010
(dp1011
g10
F0.0
sg11
I0
sg12
g13
sg14
F2.0
sssg15
F2.0
ssS'796524'
p1012
(dp1013
g3
F2.0
sg4
F100.0
sg5
I0
sg6
(dp1014
S'174'
p1015
(dp1016
g10
F100.0
sg11
F2.0
sg12
g1015
sg14
F2.0
sssg15
F2.0
ssS'796523'
p1017
(dp1018
g3
F1.0
sg4
F100.0
sg5
I0
sg6
(dp1019
S'174'
p1020
(dp1021
g10
F100.0
sg11
F1.0
sg12
g1020
sg14
F1.0
sssg15
F1.0
ssS'7848'
p1022
(dp1023
g3
I0
sg4
F0.0
sg5
I0
sg6
(dp1024
S'117'
p1025
(dp1026
g10
F0.0
sg11
I0
sg12
g13
sg14
F2.0
sssg15
F2.0
ssS'7483'
p1027
(dp1028
g3
F2.0
sg4
F100.0
sg5
I0
sg6
(dp1029
g347
(dp1030
g10
F100.0
sg11
F2.0
sg12
g13
sg14
F2.0
sssg15
F2.0
ssS'7482'
p1031
(dp1032
g3
F1.0
sg4
F33.333333333333329
sg5
I0
sg6
(dp1033
g285
(dp1034
g10
F33.333333333333329
sg11
F1.0
sg12
g13
sg14
F3.0
sssg15
F3.0
ssS'7845'
p1035
(dp1036
g3
F1.0
sg4
F100.0
sg5
I0
sg6
(dp1037
g597
(dp1038
g10
F100.0
sg11
F1.0
sg12
g13
sg14
F1.0
sssg15
F1.0
ssS'7844'
p1039
(dp1040
g3
F2.0
sg4
F100.0
sg5
I0
sg6
(dp1041
S'117'
p1042
(dp1043
g10
F100.0
sg11
F2.0
sg12
g13
sg14
F2.0
sssg15
F2.0
ssS'7846'
p1044
(dp1045
g3
I0
sg4
F0.0
sg5
I0
sg6
(dp1046
S'117'
p1047
(dp1048
g10
F0.0
sg11
I0
sg12
g13
sg14
F1.0
sssg15
F1.0
ssS'7841'
p1049
(dp1050
g3
F3.0
sg4
F75.0
sg5
I0
sg6
(dp1051
g157
(dp1052
g10
F75.0
sg11
F3.0
sg12
g13
sg14
F4.0
sssg15
F4.0
ssS'7843'
p1053
(dp1054
g3
F2.0
sg4
F100.0
sg5
I0
sg6
(dp1055
g559
(dp1056
g10
F100.0
sg11
F2.0
sg12
g13
sg14
F2.0
sssg15
F2.0
ssS'7842'
p1057
(dp1058
g3
F1.0
sg4
F100.0
sg5
I0
sg6
(dp1059
S'117'
p1060
(dp1061
g10
F100.0
sg11
F1.0
sg12
g13
sg14
F1.0
sssg15
F1.0
ssS'78442'
p1062
(dp1063
g3
F2.0
sg4
F100.0
sg5
I0
sg6
(dp1064
g1042
(dp1065
g10
F100.0
sg11
F2.0
sg12
g13
sg14
F2.0
sssg15
F2.0
ssS'73822'
p1066
(dp1067
g3
F1.0
sg4
F100.0
sg5
I0
sg6
(dp1068
g55
(dp1069
g10
F100.0
sg11
F1.0
sg12
g13
sg14
F1.0
sssg15
F1.0
ssS'78422'
p1070
(dp1071
g3
F1.0
sg4
F100.0
sg5
I0
sg6
(dp1072
g1060
(dp1073
g10
F100.0
sg11
F1.0
sg12
g13
sg14
F1.0
sssg15
F1.0
ssS'78352'
p1074
(dp1075
g3
F2.0
sg4
F100.0
sg5
I0
sg6
(dp1076
S'117'
p1077
(dp1078
g10
F100.0
sg11
F2.0
sg12
g13
sg14
F2.0
sssg15
F2.0
ssS'74242'
p1079
(dp1080
g3
I0
sg4
F0.0
sg5
I0
sg6
(dp1081
g663
(dp1082
g10
F0.0
sg11
I0
sg12
g13
sg14
F1.0
sssg15
F1.0
ssS'7925301'
p1083
(dp1084
g3
F1.0
sg4
F100.0
sg5
I0
sg6
(dp1085
S'121'
p1086
(dp1087
g10
F100.0
sg11
F1.0
sg12
g1086
sg14
F1.0
sssg15
F1.0
ssS'79175'
p1088
(dp1089
g3
F9.0
sg4
F60.0
sg5
I0
sg6
(dp1090
S'117'
p1091
(dp1092
g10
F50.0
sg11
F6.0
sg12
g13
sg14
F12.0
ssS'174'
p1093
(dp1094
g10
F100.0
sg11
F1.0
sg12
g1093
sg14
F1.0
ssS'17'
p1095
(dp1096
g10
F100.0
sg11
F1.0
sg12
g493
sg14
F1.0
ssS'163'
p1097
(dp1098
g10
F100.0
sg11
F1.0
sg12
g1097
sg14
F1.0
sssg15
F15.0
ssS'74912'
p1099
(dp1100
g3
F1.0
sg4
F100.0
sg5
I0
sg6
(dp1101
g844
(dp1102
g10
F100.0
sg11
F1.0
sg12
g13
sg14
F1.0
sssg15
F1.0
ssS'784862'
p1103
(dp1104
g3
I0
sg4
F0.0
sg5
I0
sg6
(dp1105
g1025
(dp1106
g10
F0.0
sg11
I0
sg12
g13
sg14
F2.0
sssg15
F2.0
ssS'7925507'
p1107
(dp1108
g3
F1.0
sg4
F100.0
sg5
I0
sg6
(dp1109
S'174'
p1110
(dp1111
g10
F100.0
sg11
F1.0
sg12
g1110
sg14
F1.0
sssg15
F1.0
ssS'79099'
p1112
(dp1113
g3
F7.0
sg4
F70.0
sg5
I0
sg6
(dp1114
S'121'
p1115
(dp1116
g10
F0.0
sg11
I0
sg12
g1115
sg14
F1.0
ssS'174'
p1117
(dp1118
g10
F77.777777777777786
sg11
F7.0
sg12
g1117
sg14
F9.0
sssg15
F10.0
ssS'792535'
p1119
(dp1120
g3
F1.0
sg4
F100.0
sg5
I0
sg6
(dp1121
S'117'
p1122
(dp1123
g10
F100.0
sg11
F1.0
sg12
g13
sg14
F1.0
sssg15
F1.0
ssS'79651'
p1124
(dp1125
g3
F8.0
sg4
F88.888888888888886
sg5
I0
sg6
(dp1126
S'174'
p1127
(dp1128
g10
F88.888888888888886
sg11
F8.0
sg12
g1127
sg14
F9.0
sssg15
F9.0
ssS'79652'
p1129
(dp1130
g3
F4.0
sg4
F66.666666666666657
sg5
I0
sg6
(dp1131
g1015
(dp1132
g10
F66.666666666666657
sg11
F4.0
sg12
g1015
sg14
F6.0
sssg15
F6.0
ssS'79653'
p1133
(dp1134
g3
F6.0
sg4
F66.666666666666657
sg5
I0
sg6
(dp1135
S'121'
p1136
(dp1137
g10
F0.0
sg11
I0
sg12
g1136
sg14
F1.0
ssS'174'
p1138
(dp1139
g10
F75.0
sg11
F6.0
sg12
g1138
sg14
F8.0
sssg15
F9.0
ssS'996'
p1140
(dp1141
g3
I0
sg4
F0.0
sg5
I0
sg6
(dp1142
S'117'
p1143
(dp1144
g10
F0.0
sg11
I0
sg12
g13
sg14
F1.0
sssg15
F1.0
ssS'7831'
p1145
(dp1146
g3
F5.0
sg4
F71.428571428571431
sg5
I0
sg6
(dp1147
g761
(dp1148
g10
F71.428571428571431
sg11
F5.0
sg12
g13
sg14
F7.0
sssg15
F7.0
ssS'7833'
p1149
(dp1150
g3
I0
sg4
F0.0
sg5
I0
sg6
(dp1151
g357
(dp1152
g10
F0.0
sg11
I0
sg12
g13
sg14
F1.0
sssg15
F1.0
ssS'749676'
p1153
(dp1154
g3
F1.0
sg4
F100.0
sg5
I0
sg6
(dp1155
S'121'
p1156
(dp1157
g10
F100.0
sg11
F1.0
sg12
g1156
sg14
F1.0
sssg15
F1.0
ssS'800'
p1158
(dp1159
g3
F3.0
sg4
F75.0
sg5
I0
sg6
(dp1160
S'117'
p1161
(dp1162
g10
F66.666666666666657
sg11
F2.0
sg12
g13
sg14
F3.0
ssS'163'
p1163
(dp1164
g10
F100.0
sg11
F1.0
sg12
g1163
sg14
F1.0
sssg15
F4.0
ssS'79250'
p1165
(dp1166
g3
F2.0
sg4
F50.0
sg5
I0
sg6
(dp1167
S'117'
p1168
(dp1169
g10
F0.0
sg11
I0
sg12
g13
sg14
F1.0
ssS'174'
p1170
(dp1171
g10
F66.666666666666657
sg11
F2.0
sg12
g1170
sg14
F3.0
sssg15
F4.0
ssS'73833'
p1172
(dp1173
g3
F1.0
sg4
F50.0
sg5
I0
sg6
(dp1174
g60
(dp1175
g10
F50.0
sg11
F1.0
sg12
g13
sg14
F2.0
sssg15
F2.0
ssS'48'
p1176
(dp1177
g3
F2.0
sg4
F100.0
sg5
I0
sg6
(dp1178
S'117'
p1179
(dp1180
g10
F100.0
sg11
F2.0
sg12
g13
sg14
F2.0
sssg15
F2.0
ssS'49'
p1181
(dp1182
g3
F5.0
sg4
F62.5
sg5
I0
sg6
(dp1183
S'121'
p1184
(dp1185
g10
F100.0
sg11
F2.0
sg12
g1184
sg14
F2.0
ssS'117'
p1186
(dp1187
g10
F50.0
sg11
F3.0
sg12
g13
sg14
F6.0
sssg15
F8.0
ssS'79258'
p1188
(dp1189
g3
F2.0
sg4
F50.0
sg5
I0
sg6
(dp1190
S'117'
p1191
(dp1192
g10
F66.666666666666657
sg11
F2.0
sg12
g13
sg14
F3.0
ssS'174'
p1193
(dp1194
g10
F0.0
sg11
I0
sg12
g1193
sg14
F1.0
sssg15
F4.0
ssS'78634'
p1195
(dp1196
g3
F1.0
sg4
F100.0
sg5
I0
sg6
(dp1197
S'117'
p1198
(dp1199
g10
F100.0
sg11
F1.0
sg12
g13
sg14
F1.0
sssg15
F1.0
ssS'44'
p1200
(dp1201
g3
F9.0
sg4
F100.0
sg5
I0
sg6
(dp1202
S'117'
p1203
(dp1204
g10
F100.0
sg11
F6.0
sg12
g13
sg14
F6.0
ssS'163'
p1205
(dp1206
g10
F100.0
sg11
F3.0
sg12
g1205
sg14
F3.0
sssg15
F9.0
ssS'792533'
p1207
(dp1208
g3
F1.0
sg4
F100.0
sg5
I0
sg6
(dp1209
S'117'
p1210
(dp1211
g10
F100.0
sg11
F1.0
sg12
g13
sg14
F1.0
sssg15
F1.0
ssS'43'
p1212
(dp1213
g3
F1.0
sg4
F100.0
sg5
I0
sg6
(dp1214
S'117'
p1215
(dp1216
g10
F100.0
sg11
F1.0
sg12
g13
sg14
F1.0
sssg15
F1.0
ssS'791910'
p1217
(dp1218
g3
F1.0
sg4
F100.0
sg5
I0
sg6
(dp1219
S'117'
p1220
(dp1221
g10
F100.0
sg11
F1.0
sg12
g13
sg14
F1.0
sssg15
F1.0
ssS'1'
p1222
(dp1223
g3
F7.0
sg4
F63.636363636363633
sg5
I0
sg6
(dp1224
S'117'
p1225
(dp1226
g10
F63.636363636363633
sg11
F7.0
sg12
g13
sg14
F11.0
sssg15
F11.0
ssS'7471'
p1227
(dp1228
g3
F1.0
sg4
F100.0
sg5
I0
sg6
(dp1229
g320
(dp1230
g10
F100.0
sg11
F1.0
sg12
g13
sg14
F1.0
sssg15
F1.0
ssS'7472'
p1231
(dp1232
g3
I0
sg4
F0.0
sg5
I0
sg6
(dp1233
g280
(dp1234
g10
F0.0
sg11
I0
sg12
g280
sg14
F2.0
sssg15
F2.0
ssS'7473'
p1235
(dp1236
g3
F3.0
sg4
F17.647058823529413
sg5
I0
sg6
(dp1237
g579
(dp1238
g10
F30.0
sg11
F3.0
sg12
g13
sg14
F10.0
ssg581
(dp1239
g10
F0.0
sg11
I0
sg12
g581
sg14
F7.0
sssg15
F17.0
ssS'7925312'
p1240
(dp1241
g3
F1.0
sg4
F100.0
sg5
I0
sg6
(dp1242
S'117'
p1243
(dp1244
g10
F100.0
sg11
F1.0
sg12
g13
sg14
F1.0
sssg15
F1.0
ssS'7475'
p1245
(dp1246
g3
F1.0
sg4
F100.0
sg5
I0
sg6
(dp1247
S'117'
p1248
(dp1249
g10
F100.0
sg11
F1.0
sg12
g13
sg14
F1.0
sssg15
F1.0
ssS'79629'
p1250
(dp1251
g3
F5.0
sg4
F71.428571428571431
sg5
I0
sg6
(dp1252
S'174'
p1253
(dp1254
g10
F71.428571428571431
sg11
F5.0
sg12
g1253
sg14
F7.0
sssg15
F7.0
ssS'73832'
p1255
(dp1256
g3
F1.0
sg4
F100.0
sg5
I0
sg6
(dp1257
S'117'
p1258
(dp1259
g10
F100.0
sg11
F1.0
sg12
g13
sg14
F1.0
sssg15
F1.0
ssS'7835'
p1260
(dp1261
g3
F2.0
sg4
F100.0
sg5
I0
sg6
(dp1262
g1077
(dp1263
g10
F100.0
sg11
F2.0
sg12
g13
sg14
F2.0
sssg15
F2.0
ssS'796529'
p1264
(dp1265
g3
I0
sg4
F0.0
sg5
I0
sg6
(dp1266
S'174'
p1267
(dp1268
g10
F0.0
sg11
I0
sg12
g1267
sg14
F1.0
sssg15
F1.0
ssS'796541'
p1269
(dp1270
g3
F1.0
sg4
F100.0
sg5
I0
sg6
(dp1271
S'174'
p1272
(dp1273
g10
F100.0
sg11
F1.0
sg12
g1272
sg14
F1.0
sssg15
F1.0
ssS'792518'
p1274
(dp1275
g3
I0
sg4
F0.0
sg5
I0
sg6
(dp1276
S'117'
p1277
(dp1278
g10
F0.0
sg11
I0
sg12
g13
sg14
F1.0
sssg15
F1.0
ssS'792519'
p1279
(dp1280
g3
F1.0
sg4
F100.0
sg5
I0
sg6
(dp1281
S'117'
p1282
(dp1283
g10
F100.0
sg11
F1.0
sg12
g13
sg14
F1.0
sssg15
F1.0
ssS'786343'
p1284
(dp1285
g3
F1.0
sg4
F100.0
sg5
I0
sg6
(dp1286
g1198
(dp1287
g10
F100.0
sg11
F1.0
sg12
g13
sg14
F1.0
sssg15
F1.0
ssS'792511'
p1288
(dp1289
g3
F1.0
sg4
F100.0
sg5
I0
sg6
(dp1290
S'174'
p1291
(dp1292
g10
F100.0
sg11
F1.0
sg12
g1291
sg14
F1.0
sssg15
F1.0
ssS'791999'
p1293
(dp1294
g3
F2.0
sg4
F100.0
sg5
I0
sg6
(dp1295
S'174'
p1296
(dp1297
g10
F100.0
sg11
F1.0
sg12
g1296
sg14
F1.0
ssS'163'
p1298
(dp1299
g10
F100.0
sg11
F1.0
sg12
g1298
sg14
F1.0
sssg15
F2.0
ssS'792514'
p1300
(dp1301
g3
F1.0
sg4
F50.0
sg5
I0
sg6
(dp1302
S'117'
p1303
(dp1304
g10
F0.0
sg11
I0
sg12
g13
sg14
F1.0
ssS'174'
p1305
(dp1306
g10
F100.0
sg11
F1.0
sg12
g1305
sg14
F1.0
sssg15
F2.0
ssS'7351'
p1307
(dp1308
g3
F1.0
sg4
F100.0
sg5
I0
sg6
(dp1309
S'117'
p1310
(dp1311
g10
F100.0
sg11
F1.0
sg12
g13
sg14
F1.0
sssg15
F1.0
ssS'78152'
p1312
(dp1313
g3
F2.0
sg4
F100.0
sg5
I0
sg6
(dp1314
g19
(dp1315
g10
F100.0
sg11
F2.0
sg12
g13
sg14
F2.0
sssg15
F2.0
ssS'79150'
p1316
(dp1317
g3
F5.0
sg4
F100.0
sg5
I0
sg6
(dp1318
S'117'
p1319
(dp1320
g10
F100.0
sg11
F4.0
sg12
g13
sg14
F4.0
ssS'174'
p1321
(dp1322
g10
F100.0
sg11
F1.0
sg12
g1321
sg14
F1.0
sssg15
F5.0
ssS'79015'
p1323
(dp1324
g3
I0
sg4
F0.0
sg5
I0
sg6
(dp1325
S'174'
p1326
(dp1327
g10
F0.0
sg11
I0
sg12
g1326
sg14
F1.0
sssg15
F1.0
ssS'78462'
p1328
(dp1329
g3
I0
sg4
F0.0
sg5
I0
sg6
(dp1330
g1047
(dp1331
g10
F0.0
sg11
I0
sg12
g13
sg14
F1.0
sssg15
F1.0
ssS'79257'
p1332
(dp1333
g3
I0
sg4
F0.0
sg5
I0
sg6
(dp1334
S'174'
p1335
(dp1336
g10
F0.0
sg11
I0
sg12
g1335
sg14
F1.0
sssg15
F1.0
ssS'7353'
p1337
(dp1338
g3
F1.0
sg4
F100.0
sg5
I0
sg6
(dp1339
S'117'
p1340
(dp1341
g10
F100.0
sg11
F1.0
sg12
g13
sg14
F1.0
sssg15
F1.0
ssS'7925245'
p1342
(dp1343
g3
F1.0
sg4
F100.0
sg5
I0
sg6
(dp1344
S'117'
p1345
(dp1346
g10
F100.0
sg11
F1.0
sg12
g13
sg14
F1.0
sssg15
F1.0
ssS'74862'
p1347
(dp1348
g3
F1.0
sg4
F33.333333333333329
sg5
I0
sg6
(dp1349
S'117'
p1350
(dp1351
g10
F33.333333333333329
sg11
F1.0
sg12
g13
sg14
F3.0
sssg15
F3.0
ssS'7486'
p1352
(dp1353
g3
F1.0
sg4
F33.333333333333329
sg5
I0
sg6
(dp1354
g1350
(dp1355
g10
F33.333333333333329
sg11
F1.0
sg12
g13
sg14
F3.0
sssg15
F3.0
ssS'796463'
p1356
(dp1357
g3
F1.0
sg4
F100.0
sg5
I0
sg6
(dp1358
S'174'
p1359
(dp1360
g10
F100.0
sg11
F1.0
sg12
g1359
sg14
F1.0
sssg15
F1.0
ssS'79153'
p1361
(dp1362
g3
F4.0
sg4
F57.142857142857139
sg5
I0
sg6
(dp1363
S'117'
p1364
(dp1365
g10
F50.0
sg11
F3.0
sg12
g13
sg14
F6.0
ssS'174'
p1366
(dp1367
g10
F100.0
sg11
F1.0
sg12
g1366
sg14
F1.0
sssg15
F7.0
ssS'79152'
p1368
(dp1369
g3
F7.0
sg4
F70.0
sg5
I0
sg6
(dp1370
S'121'
p1371
(dp1372
g10
F100.0
sg11
F1.0
sg12
g1371
sg14
F1.0
ssS'117'
p1373
(dp1374
g10
F57.142857142857139
sg11
F4.0
sg12
g13
sg14
F7.0
ssS'174'
p1375
(dp1376
g10
F100.0
sg11
F2.0
sg12
g1375
sg14
F2.0
sssg15
F10.0
ssS'79151'
p1377
(dp1378
g3
F3.0
sg4
F75.0
sg5
I0
sg6
(dp1379
S'117'
p1380
(dp1381
g10
F66.666666666666657
sg11
F2.0
sg12
g13
sg14
F3.0
ssS'174'
p1382
(dp1383
g10
F100.0
sg11
F1.0
sg12
g1382
sg14
F1.0
sssg15
F4.0
ssS'73952'
p1384
(dp1385
g3
F1.0
sg4
F100.0
sg5
I0
sg6
(dp1386
g162
(dp1387
g10
F100.0
sg11
F1.0
sg12
g13
sg14
F1.0
sssg15
F1.0
ssS'79154'
p1388
(dp1389
g3
F6.0
sg4
F42.857142857142854
sg5
I0
sg6
(dp1390
S'117'
p1391
(dp1392
g10
F41.666666666666671
sg11
F5.0
sg12
g13
sg14
F12.0
ssS'174'
p1393
(dp1394
g10
F50.0
sg11
F1.0
sg12
g1393
sg14
F2.0
sssg15
F14.0
ss.