(dp0
S'7812'
p1
(dp2
S'suc_calls'
p3
F10.0
sS'asr'
p4
F55.555555555555557
sS'without_tg'
p5
I1
sS'trunks'
p6
(dp7
S'121'
p8
(dp9
S'tg_asr'
p10
F66.666666666666657
sS'tg_suc_calls'
p11
F10.0
sS'tg_name'
p12
g8
sS'tg_calls'
p13
F15.0
ssS'117'
p14
(dp15
g10
F0.0
sg11
I0
sg12
S'\xd0\x91\xd0\xb8\xd0\xbb\xd0\xb0\xd0\xb9\xd0\xbd (\xd0\x92\xd1\x8b\xd0\xbc\xd0\xbf\xd0\xb5\xd0\xbb\xd0\x9a\xd0\xbe\xd0\xbc) \xd0\xb4\xd0\xbe\xd0\xb3.JF053'
p16
sg13
F1.0
ssS'163'
p17
(dp18
g10
F0.0
sg11
I0
sg12
g17
sg13
F1.0
sssS'calls'
p19
F18.0
ssS'7813'
p20
(dp21
g3
F1.0
sg4
F25.0
sg5
I0
sg6
(dp22
S'117'
p23
(dp24
g10
F25.0
sg11
F1.0
sg12
g16
sg13
F4.0
sssg19
F4.0
ssS'7811'
p25
(dp26
g3
F1.0
sg4
F100.0
sg5
I0
sg6
(dp27
S'117'
p28
(dp29
g10
F100.0
sg11
F1.0
sg12
g16
sg13
F1.0
sssg19
F1.0
ssS'79636'
p30
(dp31
g3
F8.0
sg4
F100.0
sg5
I0
sg6
(dp32
S'174'
p33
(dp34
g10
F100.0
sg11
F8.0
sg12
g33
sg13
F8.0
sssg19
F8.0
ssS'7383'
p35
(dp36
g3
F6.0
sg4
F100.0
sg5
I0
sg6
(dp37
S'121'
p38
(dp39
g10
F100.0
sg11
F1.0
sg12
g38
sg13
F1.0
ssS'117'
p40
(dp41
g10
F100.0
sg11
F5.0
sg12
g16
sg13
F5.0
sssg19
F6.0
ssS'790916'
p42
(dp43
g3
F3.0
sg4
F60.0
sg5
I0
sg6
(dp44
S'174'
p45
(dp46
g10
F60.0
sg11
F3.0
sg12
g45
sg13
F5.0
sssg19
F5.0
ssS'748439'
p47
(dp48
g3
F1.0
sg4
F100.0
sg5
I0
sg6
(dp49
S'121'
p50
(dp51
g10
F100.0
sg11
F1.0
sg12
g50
sg13
F1.0
sssg19
F1.0
ssS'790396'
p52
(dp53
g3
F4.0
sg4
F100.0
sg5
I0
sg6
(dp54
S'174'
p55
(dp56
g10
F100.0
sg11
F4.0
sg12
g55
sg13
F4.0
sssg19
F4.0
ssS'790397'
p57
(dp58
g3
F2.0
sg4
F100.0
sg5
I0
sg6
(dp59
S'174'
p60
(dp61
g10
F100.0
sg11
F2.0
sg12
g60
sg13
F2.0
sssg19
F2.0
ssS'7384'
p62
(dp63
g3
I0
sg4
F0.0
sg5
I0
sg6
(dp64
S'117'
p65
(dp66
g10
F0.0
sg11
I0
sg12
g16
sg13
F2.0
sssg19
F2.0
ssS'7385'
p67
(dp68
g3
F1.0
sg4
F100.0
sg5
I0
sg6
(dp69
S'155'
p70
(dp71
g10
F100.0
sg11
F1.0
sg12
S'A2 M200 link 9 DPC \xd0\xbf\xd0\xbe\xd0\xb8\xd0\xbd\xd1\x82\xd0\xba\xd0\xbe\xd0\xb4 190 \xd0\xbd\xd0\xb0\xd1\x88 OPC 274'
p72
sg13
F1.0
sssg19
F1.0
ssS'78312'
p73
(dp74
g3
F1.0
sg4
F100.0
sg5
I0
sg6
(dp75
S'117'
p76
(dp77
g10
F100.0
sg11
F1.0
sg12
g16
sg13
F1.0
sssg19
F1.0
ssS'796378'
p78
(dp79
g3
F1.0
sg4
F100.0
sg5
I0
sg6
(dp80
S'174'
p81
(dp82
g10
F100.0
sg11
F1.0
sg12
g81
sg13
F1.0
sssg19
F1.0
ssS'74752'
p83
(dp84
g3
F1.0
sg4
F100.0
sg5
I0
sg6
(dp85
S'117'
p86
(dp87
g10
F100.0
sg11
F1.0
sg12
g16
sg13
F1.0
sssg19
F1.0
ssS'79671'
p88
(dp89
g3
F4.0
sg4
F66.666666666666657
sg5
I0
sg6
(dp90
S'121'
p91
(dp92
g10
F100.0
sg11
F1.0
sg12
g91
sg13
F1.0
ssS'174'
p93
(dp94
g10
F60.0
sg11
F3.0
sg12
g93
sg13
F5.0
sssg19
F6.0
ssS'796372'
p95
(dp96
g3
I0
sg4
F0.0
sg5
I0
sg6
(dp97
S'174'
p98
(dp99
g10
F0.0
sg11
I0
sg12
g98
sg13
F2.0
sssg19
F2.0
ssS'796371'
p100
(dp101
g3
F1.0
sg4
F100.0
sg5
I0
sg6
(dp102
S'174'
p103
(dp104
g10
F100.0
sg11
F1.0
sg12
g103
sg13
F1.0
sssg19
F1.0
ssS'790367'
p105
(dp106
g3
F2.0
sg4
F100.0
sg5
I0
sg6
(dp107
S'174'
p108
(dp109
g10
F100.0
sg11
F1.0
sg12
g108
sg13
F1.0
ssS'163'
p110
(dp111
g10
F100.0
sg11
F1.0
sg12
g110
sg13
F1.0
sssg19
F2.0
ssS'790366'
p112
(dp113
g3
F1.0
sg4
F100.0
sg5
I0
sg6
(dp114
S'174'
p115
(dp116
g10
F100.0
sg11
F1.0
sg12
g115
sg13
F1.0
sssg19
F1.0
ssS'796471'
p117
(dp118
g3
F1.0
sg4
F100.0
sg5
I0
sg6
(dp119
S'174'
p120
(dp121
g10
F100.0
sg11
F1.0
sg12
g120
sg13
F1.0
sssg19
F1.0
ssS'790362'
p122
(dp123
g3
F3.0
sg4
F75.0
sg5
I0
sg6
(dp124
S'174'
p125
(dp126
g10
F75.0
sg11
F3.0
sg12
g125
sg13
F4.0
sssg19
F4.0
ssS'790361'
p127
(dp128
g3
F1.0
sg4
F33.333333333333329
sg5
I0
sg6
(dp129
S'174'
p130
(dp131
g10
F33.333333333333329
sg11
F1.0
sg12
g130
sg13
F3.0
sssg19
F3.0
ssS'796472'
p132
(dp133
g3
I0
sg4
F0.0
sg5
I1
sg6
(dp134
sg19
F1.0
ssS'796526'
p135
(dp136
g3
F1.0
sg4
F100.0
sg5
I0
sg6
(dp137
S'174'
p138
(dp139
g10
F100.0
sg11
F1.0
sg12
g138
sg13
F1.0
sssg19
F1.0
ssS'78412'
p140
(dp141
g3
I0
sg4
F0.0
sg5
I0
sg6
(dp142
S'117'
p143
(dp144
g10
F0.0
sg11
I0
sg12
g16
sg13
F3.0
sssg19
F3.0
ssS'74712'
p145
(dp146
g3
F2.0
sg4
F100.0
sg5
I0
sg6
(dp147
S'117'
p148
(dp149
g10
F100.0
sg11
F2.0
sg12
g16
sg13
F2.0
sssg19
F2.0
ssS'7800'
p150
(dp151
g3
F4.0
sg4
F100.0
sg5
I0
sg6
(dp152
S'102'
p153
(dp154
g10
F100.0
sg11
F2.0
sg12
S'\xd0\x9a\xd0\xbe\xd0\xbc\xd1\x81\xd1\x82\xd0\xb0\xd1\x80 (\xd0\x9c\xd0\xa2\xd0\xa1) \xd0\xbc\xd0\xb5\xd1\x81\xd1\x82\xd0\xbd\xd1\x8b\xd0\xb9'
p155
sg13
F2.0
ssS'117'
p156
(dp157
g10
F100.0
sg11
F2.0
sg12
g16
sg13
F2.0
sssg19
F4.0
ssS'792537'
p158
(dp159
g3
I0
sg4
F0.0
sg5
I0
sg6
(dp160
S'117'
p161
(dp162
g10
F0.0
sg11
I0
sg12
g16
sg13
F1.0
ssS'174'
p163
(dp164
g10
F0.0
sg11
I0
sg12
g163
sg13
F1.0
sssg19
F2.0
ssS'7391'
p165
(dp166
g3
F3.0
sg4
F50.0
sg5
I0
sg6
(dp167
S'117'
p168
(dp169
g10
F50.0
sg11
F3.0
sg12
g16
sg13
F6.0
sssg19
F6.0
ssS'792532'
p170
(dp171
g3
F1.0
sg4
F100.0
sg5
I0
sg6
(dp172
S'174'
p173
(dp174
g10
F100.0
sg11
F1.0
sg12
g173
sg13
F1.0
sssg19
F1.0
ssS'78632'
p175
(dp176
g3
F2.0
sg4
F100.0
sg5
I0
sg6
(dp177
S'121'
p178
(dp179
g10
F100.0
sg11
F2.0
sg12
g178
sg13
F2.0
sssg19
F2.0
ssS'73472'
p180
(dp181
g3
F2.0
sg4
F50.0
sg5
I0
sg6
(dp182
S'117'
p183
(dp184
g10
F50.0
sg11
F2.0
sg12
g16
sg13
F4.0
sssg19
F4.0
ssS'998'
p185
(dp186
g3
F1.0
sg4
F100.0
sg5
I0
sg6
(dp187
S'117'
p188
(dp189
g10
F100.0
sg11
F1.0
sg12
g16
sg13
F1.0
sssg19
F1.0
ssS'7925509'
p190
(dp191
g3
F2.0
sg4
F66.666666666666657
sg5
I0
sg6
(dp192
S'117'
p193
(dp194
g10
F50.0
sg11
F1.0
sg12
g16
sg13
F2.0
ssS'174'
p195
(dp196
g10
F100.0
sg11
F1.0
sg12
g195
sg13
F1.0
sssg19
F3.0
ssS'38044'
p197
(dp198
g3
F2.0
sg4
F66.666666666666657
sg5
I0
sg6
(dp199
S'121'
p200
(dp201
g10
F66.666666666666657
sg11
F2.0
sg12
g200
sg13
F3.0
sssg19
F3.0
ssS'420'
p202
(dp203
g3
F2.0
sg4
F100.0
sg5
I0
sg6
(dp204
S'117'
p205
(dp206
g10
F100.0
sg11
F2.0
sg12
g16
sg13
F2.0
sssg19
F2.0
ssS'7473'
p207
(dp208
g3
F3.0
sg4
F60.0
sg5
I0
sg6
(dp209
S'117'
p210
(dp211
g10
F50.0
sg11
F2.0
sg12
g16
sg13
F4.0
ssS'17'
p212
(dp213
g10
F100.0
sg11
F1.0
sg12
S'\xd0\x91\xd0\xb8\xd0\xbb\xd0\xbb\xd0\xb0\xd0\xb9\xd0\xbd(\xd0\x92\xd1\x8b\xd0\xbc\xd0\xbf\xd0\xb5\xd0\xbb\xd0\xba\xd0\xbe\xd0\xbc)   \xd0\x9d\xd0\x9e0003 - \xd0\xba\xd0\xbb\xd0\xb8\xd0\xb5\xd0\xbd\xd1\x82\xd1\x8b \xd0\xa1\xd0\xbe\xd0\xb2\xd0\xb8\xd0\xbd\xd1\x82\xd0\xb5\xd0\xbb\xd0\xb0 \xd0\xbd\xd0\xb0 \xd0\x90\xd0\xbb\xd0\xba\xd0\xb0\xd1\x82\xd0\xb5\xd0\xbb\xd0\xb5'
p214
sg13
F1.0
sssg19
F5.0
ssS'79031'
p215
(dp216
g3
F15.0
sg4
F62.5
sg5
I1
sg6
(dp217
S'174'
p218
(dp219
g10
F63.636363636363633
sg11
F14.0
sg12
g218
sg13
F22.0
ssS'155'
p220
(dp221
g10
F100.0
sg11
F1.0
sg12
g72
sg13
F1.0
sssg19
F24.0
ssS'79032'
p222
(dp223
g3
F20.0
sg4
F86.956521739130437
sg5
I0
sg6
(dp224
S'117'
p225
(dp226
g10
F100.0
sg11
F2.0
sg12
g16
sg13
F2.0
ssS'174'
p227
(dp228
g10
F85.0
sg11
F17.0
sg12
g227
sg13
F20.0
ssS'163'
p229
(dp230
g10
F100.0
sg11
F1.0
sg12
g229
sg13
F1.0
sssg19
F23.0
ssS'781371'
p231
(dp232
g3
I0
sg4
F0.0
sg5
I0
sg6
(dp233
g23
(dp234
g10
F0.0
sg11
I0
sg12
g16
sg13
F3.0
sssg19
F3.0
ssS'749624'
p235
(dp236
g3
F1.0
sg4
F50.0
sg5
I0
sg6
(dp237
S'117'
p238
(dp239
g10
F50.0
sg11
F1.0
sg12
g16
sg13
F2.0
sssg19
F2.0
ssS'79035'
p240
(dp241
g3
F14.0
sg4
F66.666666666666657
sg5
I0
sg6
(dp242
S'174'
p243
(dp244
g10
F65.0
sg11
F13.0
sg12
g243
sg13
F20.0
ssS'17'
p245
(dp246
g10
F100.0
sg11
F1.0
sg12
g214
sg13
F1.0
sssg19
F21.0
ssS'74152'
p247
(dp248
g3
F1.0
sg4
F100.0
sg5
I0
sg6
(dp249
S'117'
p250
(dp251
g10
F100.0
sg11
F1.0
sg12
g16
sg13
F1.0
sssg19
F1.0
ssS'79037'
p252
(dp253
g3
F18.0
sg4
F75.0
sg5
I0
sg6
(dp254
S'174'
p255
(dp256
g10
F73.91304347826086
sg11
F17.0
sg12
g255
sg13
F23.0
ssS'163'
p257
(dp258
g10
F100.0
sg11
F1.0
sg12
g257
sg13
F1.0
sssg19
F24.0
ssS'749621'
p259
(dp260
g3
F1.0
sg4
F50.0
sg5
I0
sg6
(dp261
S'117'
p262
(dp263
g10
F50.0
sg11
F1.0
sg12
g16
sg13
F2.0
sssg19
F2.0
ssS'371'
p264
(dp265
g3
F4.0
sg4
F100.0
sg5
I0
sg6
(dp266
S'117'
p267
(dp268
g10
F100.0
sg11
F4.0
sg12
g16
sg13
F4.0
sssg19
F4.0
ssS'796524'
p269
(dp270
g3
F1.0
sg4
F100.0
sg5
I0
sg6
(dp271
S'174'
p272
(dp273
g10
F100.0
sg11
F1.0
sg12
g272
sg13
F1.0
sssg19
F1.0
ssS'372'
p274
(dp275
g3
F1.0
sg4
F100.0
sg5
I0
sg6
(dp276
S'121'
p277
(dp278
g10
F100.0
sg11
F1.0
sg12
g277
sg13
F1.0
sssg19
F1.0
ssS'375'
p279
(dp280
g3
F8.0
sg4
F61.53846153846154
sg5
I0
sg6
(dp281
S'121'
p282
(dp283
g10
F87.5
sg11
F7.0
sg12
g282
sg13
F8.0
ssS'117'
p284
(dp285
g10
F20.0
sg11
F1.0
sg12
g16
sg13
F5.0
sssg19
F13.0
ssS'7925514'
p286
(dp287
g3
F2.0
sg4
F66.666666666666657
sg5
I0
sg6
(dp288
S'117'
p289
(dp290
g10
F100.0
sg11
F1.0
sg12
g16
sg13
F1.0
ssS'174'
p291
(dp292
g10
F50.0
sg11
F1.0
sg12
g291
sg13
F2.0
sssg19
F3.0
ssS'792520'
p293
(dp294
g3
F1.0
sg4
F100.0
sg5
I0
sg6
(dp295
S'117'
p296
(dp297
g10
F100.0
sg11
F1.0
sg12
g16
sg13
F1.0
sssg19
F1.0
ssS'7925510'
p298
(dp299
g3
I0
sg4
F0.0
sg5
I0
sg6
(dp300
S'117'
p301
(dp302
g10
F0.0
sg11
I0
sg12
g16
sg13
F1.0
sssg19
F1.0
ssS'7963714'
p303
(dp304
g3
F1.0
sg4
F100.0
sg5
I0
sg6
(dp305
g103
(dp306
g10
F100.0
sg11
F1.0
sg12
g103
sg13
F1.0
sssg19
F1.0
ssS'7855'
p307
(dp308
g3
I0
sg4
F0.0
sg5
I0
sg6
(dp309
S'117'
p310
(dp311
g10
F0.0
sg11
I0
sg12
g16
sg13
F1.0
sssg19
F1.0
ssS'74722'
p312
(dp313
g3
F2.0
sg4
F100.0
sg5
I0
sg6
(dp314
S'117'
p315
(dp316
g10
F100.0
sg11
F2.0
sg12
g16
sg13
F2.0
sssg19
F2.0
ssS'79295'
p317
(dp318
g3
F2.0
sg4
F66.666666666666657
sg5
I0
sg6
(dp319
S'117'
p320
(dp321
g10
F100.0
sg11
F1.0
sg12
g16
sg13
F1.0
ssS'174'
p322
(dp323
g10
F50.0
sg11
F1.0
sg12
g322
sg13
F2.0
sssg19
F3.0
ssS'79296'
p324
(dp325
g3
F2.0
sg4
F100.0
sg5
I0
sg6
(dp326
S'117'
p327
(dp328
g10
F100.0
sg11
F2.0
sg12
g16
sg13
F2.0
sssg19
F2.0
ssS'749634'
p329
(dp330
g3
F1.0
sg4
F16.666666666666664
sg5
I0
sg6
(dp331
S'68'
p332
(dp333
g10
F0.0
sg11
I0
sg12
g332
sg13
F1.0
ssS'121'
p334
(dp335
g10
F20.0
sg11
F1.0
sg12
g334
sg13
F5.0
sssg19
F6.0
ssS'790915'
p336
(dp337
g3
F2.0
sg4
F50.0
sg5
I0
sg6
(dp338
S'174'
p339
(dp340
g10
F50.0
sg11
F2.0
sg12
g339
sg13
F4.0
sssg19
F4.0
ssS'796456'
p341
(dp342
g3
F1.0
sg4
F50.0
sg5
I0
sg6
(dp343
S'174'
p344
(dp345
g10
F50.0
sg11
F1.0
sg12
g344
sg13
F2.0
sssg19
F2.0
ssS'749627'
p346
(dp347
g3
F1.0
sg4
F50.0
sg5
I0
sg6
(dp348
S'121'
p349
(dp350
g10
F50.0
sg11
F1.0
sg12
g349
sg13
F2.0
sssg19
F2.0
ssS'86'
p351
(dp352
g3
F1.0
sg4
F100.0
sg5
I0
sg6
(dp353
S'117'
p354
(dp355
g10
F100.0
sg11
F1.0
sg12
g16
sg13
F1.0
sssg19
F1.0
ssS'79299'
p356
(dp357
g3
F4.0
sg4
F66.666666666666657
sg5
I0
sg6
(dp358
S'115'
p359
(dp360
g10
F50.0
sg11
F1.0
sg12
S'\xd0\x92\xd1\x8b\xd0\xbc\xd0\xbf\xd0\xb5\xd0\xbb\xd0\x9a\xd0\xbe\xd0\xbc \xd0\xb4\xd0\xbe\xd0\xb3.JF053 (\xd0\xb4\xd0\xbb\xd1\x8f \xd0\x90\xd0\xb3\xd0\xb5\xd0\xbd\xd1\x81\xd0\xba\xd0\xbe\xd0\xb3\xd0\xbe \xd1\x82\xd1\x80\xd0\xb0\xd1\x84\xd0\xb8\xd0\xba\xd0\xb0)'
p361
sg13
F2.0
ssS'117'
p362
(dp363
g10
F100.0
sg11
F3.0
sg12
g16
sg13
F3.0
ssS'174'
p364
(dp365
g10
F0.0
sg11
I0
sg12
g364
sg13
F1.0
sssg19
F6.0
ssS'79689'
p366
(dp367
g3
F1.0
sg4
F100.0
sg5
I0
sg6
(dp368
S'155'
p369
(dp370
g10
F100.0
sg11
F1.0
sg12
g72
sg13
F1.0
sssg19
F1.0
ssS'79688'
p371
(dp372
g3
F2.0
sg4
F50.0
sg5
I0
sg6
(dp373
S'121'
p374
(dp375
g10
F0.0
sg11
I0
sg12
g374
sg13
F1.0
ssS'174'
p376
(dp377
g10
F66.666666666666657
sg11
F2.0
sg12
g376
sg13
F3.0
sssg19
F4.0
ssS'79687'
p378
(dp379
g3
F2.0
sg4
F100.0
sg5
I0
sg6
(dp380
S'174'
p381
(dp382
g10
F100.0
sg11
F2.0
sg12
g381
sg13
F2.0
sssg19
F2.0
ssS'7925108'
p383
(dp384
g3
F1.0
sg4
F100.0
sg5
I0
sg6
(dp385
S'117'
p386
(dp387
g10
F100.0
sg11
F1.0
sg12
g16
sg13
F1.0
sssg19
F1.0
ssS'796236'
p388
(dp389
g3
F1.0
sg4
F100.0
sg5
I0
sg6
(dp390
S'117'
p391
(dp392
g10
F100.0
sg11
F1.0
sg12
g16
sg13
F1.0
sssg19
F1.0
ssS'790301'
p393
(dp394
g3
F1.0
sg4
F100.0
sg5
I0
sg6
(dp395
S'174'
p396
(dp397
g10
F100.0
sg11
F1.0
sg12
g396
sg13
F1.0
sssg19
F1.0
ssS'790300'
p398
(dp399
g3
F1.0
sg4
F100.0
sg5
I0
sg6
(dp400
S'174'
p401
(dp402
g10
F100.0
sg11
F1.0
sg12
g401
sg13
F1.0
sssg19
F1.0
ssS'74922'
p403
(dp404
g3
I0
sg4
F0.0
sg5
I0
sg6
(dp405
S'117'
p406
(dp407
g10
F0.0
sg11
I0
sg12
g16
sg13
F1.0
sssg19
F1.0
ssS'796522'
p408
(dp409
g3
I0
sg4
F0.0
sg5
I0
sg6
(dp410
S'174'
p411
(dp412
g10
F0.0
sg11
I0
sg12
g411
sg13
F1.0
sssg19
F1.0
ssS'7'
p413
(dp414
g3
F3171.0
sg4
F72.72935779816514
sg5
I164
sg6
(dp415
S'130'
p416
(dp417
g10
F100.0
sg11
F3.0
sg12
g416
sg13
F3.0
ssS'135'
p418
(dp419
g10
F66.666666666666657
sg11
F2.0
sg12
g418
sg13
F3.0
ssS'166'
p420
(dp421
g10
F100.0
sg11
F2.0
sg12
g420
sg13
F2.0
ssS'24'
p422
(dp423
g10
F100.0
sg11
F1.0
sg12
g422
sg13
F1.0
ssS'25'
p424
(dp425
g10
F100.0
sg11
F3.0
sg12
g424
sg13
F3.0
ssS'26'
p426
(dp427
g10
F66.666666666666657
sg11
F2.0
sg12
g426
sg13
F3.0
ssS'21'
p428
(dp429
g10
F100.0
sg11
F1.0
sg12
g428
sg13
F1.0
ssS'22'
p430
(dp431
g10
F81.818181818181827
sg11
F18.0
sg12
g430
sg13
F22.0
ssS'23'
p432
(dp433
g10
F100.0
sg11
F2.0
sg12
g432
sg13
F2.0
ssS'29'
p434
(dp435
g10
F100.0
sg11
F7.0
sg12
g434
sg13
F7.0
ssS'4'
p436
(dp437
g10
F0.0
sg11
I0
sg12
g436
sg13
F3.0
ssS'163'
p438
(dp439
g10
F74.193548387096769
sg11
F23.0
sg12
g438
sg13
F31.0
ssS'121'
p440
(dp441
g10
F67.368421052631575
sg11
F128.0
sg12
g440
sg13
F190.0
ssS'122'
p442
(dp443
g10
F100.0
sg11
F4.0
sg12
g442
sg13
F4.0
ssS'123'
p444
(dp445
g10
F60.0
sg11
F3.0
sg12
g444
sg13
F5.0
ssS'124'
p446
(dp447
g10
F100.0
sg11
F3.0
sg12
g446
sg13
F3.0
ssS'125'
p448
(dp449
g10
F100.0
sg11
F3.0
sg12
g448
sg13
F3.0
ssS'126'
p450
(dp451
g10
F100.0
sg11
F1.0
sg12
g450
sg13
F1.0
ssS'127'
p452
(dp453
g10
F16.666666666666664
sg11
F2.0
sg12
g452
sg13
F12.0
ssS'128'
p454
(dp455
g10
F100.0
sg11
F1.0
sg12
g454
sg13
F1.0
ssS'129'
p456
(dp457
g10
F83.333333333333343
sg11
F5.0
sg12
g456
sg13
F6.0
ssS'58'
p458
(dp459
g10
F0.0
sg11
I0
sg12
g458
sg13
F1.0
ssS'55'
p460
(dp461
g10
F84.210526315789465
sg11
F64.0
sg12
g460
sg13
F76.0
ssS'54'
p462
(dp463
g10
F70.0
sg11
F7.0
sg12
g462
sg13
F10.0
ssS'56'
p464
(dp465
g10
F77.5
sg11
F31.0
sg12
g464
sg13
F40.0
ssS'53'
p466
(dp467
g10
F100.0
sg11
F4.0
sg12
g466
sg13
F4.0
ssS'52'
p468
(dp469
g10
F100.0
sg11
F1.0
sg12
g468
sg13
F1.0
ssS'115'
p470
(dp471
g10
F75.0
sg11
F3.0
sg12
g361
sg13
F4.0
ssS'114'
p472
(dp473
g10
F85.714285714285708
sg11
F6.0
sg12
g472
sg13
F7.0
ssS'117'
p474
(dp475
g10
F71.894604767879542
sg11
F1146.0
sg12
g16
sg13
F1594.0
ssS'116'
p476
(dp477
g10
F100.0
sg11
F10.0
sg12
g476
sg13
F10.0
ssS'111'
p478
(dp479
g10
F100.0
sg11
F3.0
sg12
g478
sg13
F3.0
ssS'113'
p480
(dp481
g10
F100.0
sg11
F3.0
sg12
g480
sg13
F3.0
ssS'83'
p482
(dp483
g10
F72.727272727272734
sg11
F24.0
sg12
g482
sg13
F33.0
ssS'119'
p484
(dp485
g10
F100.0
sg11
F3.0
sg12
g484
sg13
F3.0
ssS'118'
p486
(dp487
g10
F60.0
sg11
F3.0
sg12
g486
sg13
F5.0
ssS'102'
p488
(dp489
g10
F72.727272727272734
sg11
F8.0
sg12
g155
sg13
F11.0
ssS'100'
p490
(dp491
g10
F92.307692307692307
sg11
F12.0
sg12
g490
sg13
F13.0
ssS'101'
p492
(dp493
g10
F100.0
sg11
F3.0
sg12
g492
sg13
F3.0
ssS'105'
p494
(dp495
g10
F100.0
sg11
F2.0
sg12
g494
sg13
F2.0
ssS'39'
p496
(dp497
g10
F85.714285714285708
sg11
F6.0
sg12
g496
sg13
F7.0
ssS'33'
p498
(dp499
g10
F76.923076923076934
sg11
F20.0
sg12
g498
sg13
F26.0
ssS'30'
p500
(dp501
g10
F100.0
sg11
F2.0
sg12
g500
sg13
F2.0
ssS'37'
p502
(dp503
g10
F100.0
sg11
F31.0
sg12
g502
sg13
F31.0
ssS'35'
p504
(dp505
g10
F91.666666666666657
sg11
F22.0
sg12
g504
sg13
F24.0
ssS'60'
p506
(dp507
g10
F100.0
sg11
F2.0
sg12
g506
sg13
F2.0
ssS'61'
p508
(dp509
g10
F100.0
sg11
F1.0
sg12
g508
sg13
F1.0
ssS'64'
p510
(dp511
g10
F100.0
sg11
F13.0
sg12
S'\xd0\x9c\xd0\x93\xd0\xa2\xd0\xa1 707  \xd0\x92\xd1\x81\xd0\xb5\xd0\xb2\xd0\xbe\xd0\xbb\xd0\xb6\xd1\x81\xd0\xba\xd0\xb8\xd0\xb9 \xd1\x83\xd0\xb7\xd0\xb5\xd0\xbb'
p512
sg13
F13.0
ssg332
(dp513
g10
F0.0
sg11
I0
sg12
g332
sg13
F1.0
ssS'69'
p514
(dp515
g10
F76.0
sg11
F19.0
sg12
g514
sg13
F25.0
ssS'174'
p516
(dp517
g10
F59.679037111333997
sg11
F595.0
sg12
g516
sg13
F997.0
ssS'172'
p518
(dp519
g10
F100.0
sg11
F6.0
sg12
g518
sg13
F6.0
ssS'2'
p520
(dp521
g10
F100.0
sg11
F2.0
sg12
g520
sg13
F2.0
ssS'6'
p522
(dp523
g10
F48.275862068965516
sg11
F14.0
sg12
g522
sg13
F29.0
ssS'98'
p524
(dp525
g10
F60.0
sg11
F3.0
sg12
g524
sg13
F5.0
ssS'169'
p526
(dp527
g10
F87.5
sg11
F7.0
sg12
S'\xd0\xa1\xd0\xb8\xd0\xbd\xd1\x82\xd0\xb5\xd1\x80\xd1\x80\xd0\xb0 (\xd0\xbf\xd0\xbe\xd0\xbb\xd1\x83\xd1\x87\xd0\xb0\xd0\xb5\xd0\xbc \xd0\xbd\xd0\xbe\xd0\xbc\xd0\xb5\xd1\x80\xd0\xb0 789-4250\xe2\x80\xa6 7894699) LINK 5 DPC \xd0\xbf\xd0\xbe\xd0\xb8\xd0\xbd\xd1\x82\xd0\xba\xd0\xbe\xd0\xb4 20 \xd0\xbd\xd0\xb0\xd1\x88 \xd0\x9e\xd0\xa0\xd0\xa1 274'
p528
sg13
F8.0
ssS'91'
p529
(dp530
g10
F100.0
sg11
F18.0
sg12
g529
sg13
F18.0
ssS'90'
p531
(dp532
g10
F75.0
sg11
F6.0
sg12
g531
sg13
F8.0
ssS'93'
p533
(dp534
g10
F100.0
sg11
F1.0
sg12
g533
sg13
F1.0
ssS'167'
p535
(dp536
g10
F60.0
sg11
F6.0
sg12
g535
sg13
F10.0
ssS'97'
p537
(dp538
g10
F57.142857142857139
sg11
F4.0
sg12
S'\xd0\x90\xd0\xa1\xd0\x92\xd0\xa2'
p539
sg13
F7.0
ssS'96'
p540
(dp541
g10
F100.0
sg11
F1.0
sg12
g540
sg13
F1.0
ssS'10'
p542
(dp543
g10
F66.666666666666657
sg11
F2.0
sg12
g542
sg13
F3.0
ssS'13'
p544
(dp545
g10
F100.0
sg11
F2.0
sg12
g544
sg13
F2.0
ssS'17'
p546
(dp547
g10
F100.0
sg11
F5.0
sg12
g214
sg13
F5.0
ssS'88'
p548
(dp549
g10
F100.0
sg11
F7.0
sg12
g548
sg13
F7.0
ssS'150'
p550
(dp551
g10
F96.875
sg11
F31.0
sg12
g550
sg13
F32.0
ssS'153'
p552
(dp553
g10
F76.470588235294116
sg11
F13.0
sg12
S'\xd0\x9d\xd0\x98\xd0\x98\xd0\xa1\xd0\x90'
p554
sg13
F17.0
ssS'155'
p555
(dp556
g10
F62.5
sg11
F10.0
sg12
g72
sg13
F16.0
ssS'157'
p557
(dp558
g10
F100.0
sg11
F7.0
sg12
g557
sg13
F7.0
ssS'159'
p559
(dp560
g10
F94.444444444444443
sg11
F17.0
sg12
g559
sg13
F18.0
ssS'158'
p561
(dp562
g10
F100.0
sg11
F5.0
sg12
g561
sg13
F5.0
ssS'48'
p563
(dp564
g10
F66.666666666666657
sg11
F2.0
sg12
g563
sg13
F3.0
ssS'49'
p565
(dp566
g10
F76.19047619047619
sg11
F16.0
sg12
g565
sg13
F21.0
ssS'46'
p567
(dp568
g10
F100.0
sg11
F5.0
sg12
g567
sg13
F5.0
ssS'44'
p569
(dp570
g10
F68.75
sg11
F11.0
sg12
g569
sg13
F16.0
ssS'45'
p571
(dp572
g10
F79.487179487179489
sg11
F31.0
sg12
g571
sg13
F39.0
ssS'42'
p573
(dp574
g10
F80.0
sg11
F4.0
sg12
g573
sg13
F5.0
ssS'43'
p575
(dp576
g10
F100.0
sg11
F5.0
sg12
S'\xd0\x9d\xd0\xbe\xd0\xb2\xd1\x8b\xd0\xb5 \xd0\xa1\xd0\xb8\xd1\x81\xd1\x82\xd0\xb5\xd0\xbc\xd1\x8b \xd0\xa2\xd0\x9a\xd0\x9a'
p577
sg13
F5.0
ssS'40'
p578
(dp579
g10
F100.0
sg11
F3.0
sg12
g578
sg13
F3.0
ssS'41'
p580
(dp581
g10
F80.952380952380949
sg11
F17.0
sg12
g580
sg13
F21.0
ssS'5'
p582
(dp583
g10
F100.0
sg11
F1.0
sg12
g582
sg13
F1.0
ssS'9'
p584
(dp585
g10
F100.0
sg11
F1.0
sg12
S'\xd0\xa0\xd0\xb8\xd0\xbc-2000'
p586
sg13
F1.0
ssS'146'
p587
(dp588
g10
F0.0
sg11
I0
sg12
g587
sg13
F1.0
ssS'147'
p589
(dp590
g10
F80.555555555555557
sg11
F29.0
sg12
g589
sg13
F36.0
ssS'144'
p591
(dp592
g10
F100.0
sg11
F1.0
sg12
g591
sg13
F1.0
ssS'145'
p593
(dp594
g10
F90.243902439024396
sg11
F37.0
sg12
g593
sg13
F41.0
ssS'143'
p595
(dp596
g10
F100.0
sg11
F1.0
sg12
g595
sg13
F1.0
ssS'75'
p597
(dp598
g10
F100.0
sg11
F30.0
sg12
g597
sg13
F30.0
ssS'71'
p599
(dp600
g10
F86.666666666666671
sg11
F13.0
sg12
g599
sg13
F15.0
ssS'70'
p601
(dp602
g10
F80.0
sg11
F12.0
sg12
g601
sg13
F15.0
ssS'79'
p603
(dp604
g10
F100.0
sg11
F4.0
sg12
g603
sg13
F4.0
ssS'78'
p605
(dp606
g10
F89.935760171306214
sg11
F420.0
sg12
g605
sg13
F467.0
sssg19
F4360.0
ssS'78432'
p607
(dp608
g3
F5.0
sg4
F71.428571428571431
sg5
I0
sg6
(dp609
S'117'
p610
(dp611
g10
F71.428571428571431
sg11
F5.0
sg12
g16
sg13
F7.0
sssg19
F7.0
ssS'796455'
p612
(dp613
g3
F1.0
sg4
F100.0
sg5
I0
sg6
(dp614
S'174'
p615
(dp616
g10
F100.0
sg11
F1.0
sg12
g615
sg13
F1.0
sssg19
F1.0
ssS'74742'
p617
(dp618
g3
F1.0
sg4
F50.0
sg5
I0
sg6
(dp619
S'117'
p620
(dp621
g10
F100.0
sg11
F1.0
sg12
g16
sg13
F1.0
ssS'174'
p622
(dp623
g10
F0.0
sg11
I0
sg12
g622
sg13
F1.0
sssg19
F2.0
ssS'796452'
p624
(dp625
g3
F1.0
sg4
F100.0
sg5
I0
sg6
(dp626
S'174'
p627
(dp628
g10
F100.0
sg11
F1.0
sg12
g627
sg13
F1.0
sssg19
F1.0
ssS'796451'
p629
(dp630
g3
I0
sg4
F0.0
sg5
I0
sg6
(dp631
S'174'
p632
(dp633
g10
F0.0
sg11
I0
sg12
g632
sg13
F3.0
sssg19
F3.0
ssS'78612'
p634
(dp635
g3
F2.0
sg4
F100.0
sg5
I0
sg6
(dp636
S'117'
p637
(dp638
g10
F100.0
sg11
F2.0
sg12
g16
sg13
F2.0
sssg19
F2.0
ssS'74852'
p639
(dp640
g3
F2.0
sg4
F100.0
sg5
I0
sg6
(dp641
S'117'
p642
(dp643
g10
F100.0
sg11
F2.0
sg12
g16
sg13
F2.0
sssg19
F2.0
ssS'78352'
p644
(dp645
g3
F1.0
sg4
F100.0
sg5
I0
sg6
(dp646
S'117'
p647
(dp648
g10
F100.0
sg11
F1.0
sg12
g16
sg13
F1.0
sssg19
F1.0
ssS'74732'
p649
(dp650
g3
F3.0
sg4
F60.0
sg5
I0
sg6
(dp651
g210
(dp652
g10
F50.0
sg11
F2.0
sg12
g16
sg13
F4.0
ssg212
(dp653
g10
F100.0
sg11
F1.0
sg12
g214
sg13
F1.0
sssg19
F5.0
ssS'73512'
p654
(dp655
g3
F3.0
sg4
F75.0
sg5
I0
sg6
(dp656
S'117'
p657
(dp658
g10
F75.0
sg11
F3.0
sg12
g16
sg13
F4.0
sssg19
F4.0
ssS'74855'
p659
(dp660
g3
F1.0
sg4
F100.0
sg5
I0
sg6
(dp661
S'117'
p662
(dp663
g10
F100.0
sg11
F1.0
sg12
g16
sg13
F1.0
sssg19
F1.0
ssS'78453'
p664
(dp665
g3
F1.0
sg4
F100.0
sg5
I0
sg6
(dp666
S'117'
p667
(dp668
g10
F100.0
sg11
F1.0
sg12
g16
sg13
F1.0
sssg19
F1.0
ssS'380'
p669
(dp670
g3
F11.0
sg4
F64.705882352941174
sg5
I0
sg6
(dp671
g200
(dp672
g10
F60.0
sg11
F3.0
sg12
g200
sg13
F5.0
ssS'117'
p673
(dp674
g10
F66.666666666666657
sg11
F8.0
sg12
g16
sg13
F12.0
sssg19
F17.0
ssS'749643'
p675
(dp676
g3
F2.0
sg4
F50.0
sg5
I0
sg6
(dp677
S'121'
p678
(dp679
g10
F50.0
sg11
F2.0
sg12
g678
sg13
F4.0
sssg19
F4.0
ssS'7865'
p680
(dp681
g3
I0
sg4
F0.0
sg5
I0
sg6
(dp682
S'117'
p683
(dp684
g10
F0.0
sg11
I0
sg12
g16
sg13
F1.0
sssg19
F1.0
ssS'749641'
p685
(dp686
g3
F1.0
sg4
F50.0
sg5
I0
sg6
(dp687
S'121'
p688
(dp689
g10
F50.0
sg11
F1.0
sg12
g688
sg13
F2.0
sssg19
F2.0
ssS'7863'
p690
(dp691
g3
F2.0
sg4
F66.666666666666657
sg5
I0
sg6
(dp692
g178
(dp693
g10
F100.0
sg11
F2.0
sg12
g178
sg13
F2.0
ssS'174'
p694
(dp695
g10
F0.0
sg11
I0
sg12
g694
sg13
F1.0
sssg19
F3.0
ssS'7862'
p696
(dp697
g3
F1.0
sg4
F100.0
sg5
I0
sg6
(dp698
S'117'
p699
(dp700
g10
F100.0
sg11
F1.0
sg12
g16
sg13
F1.0
sssg19
F1.0
ssS'7861'
p701
(dp702
g3
F2.0
sg4
F100.0
sg5
I0
sg6
(dp703
g637
(dp704
g10
F100.0
sg11
F2.0
sg12
g16
sg13
F2.0
sssg19
F2.0
ssS'74112'
p705
(dp706
g3
I0
sg4
F0.0
sg5
I0
sg6
(dp707
S'117'
p708
(dp709
g10
F0.0
sg11
I0
sg12
g16
sg13
F1.0
sssg19
F1.0
ssS'787922'
p710
(dp711
g3
F1.0
sg4
F100.0
sg5
I0
sg6
(dp712
S'121'
p713
(dp714
g10
F100.0
sg11
F1.0
sg12
g713
sg13
F1.0
sssg19
F1.0
ssS'78422'
p715
(dp716
g3
F1.0
sg4
F100.0
sg5
I0
sg6
(dp717
S'117'
p718
(dp719
g10
F100.0
sg11
F1.0
sg12
g16
sg13
F1.0
sssg19
F1.0
ssS'33'
p720
(dp721
g3
F4.0
sg4
F20.0
sg5
I0
sg6
(dp722
S'174'
p723
(dp724
g10
F20.0
sg11
F4.0
sg12
g723
sg13
F20.0
sssg19
F20.0
ssS'790964'
p725
(dp726
g3
F2.0
sg4
F66.666666666666657
sg5
I0
sg6
(dp727
S'174'
p728
(dp729
g10
F66.666666666666657
sg11
F2.0
sg12
g728
sg13
F3.0
sssg19
F3.0
ssS'31'
p730
(dp731
g3
F1.0
sg4
F33.333333333333329
sg5
I0
sg6
(dp732
S'117'
p733
(dp734
g10
F33.333333333333329
sg11
F1.0
sg12
g16
sg13
F3.0
sssg19
F3.0
ssS'790966'
p735
(dp736
g3
F1.0
sg4
F100.0
sg5
I0
sg6
(dp737
S'174'
p738
(dp739
g10
F100.0
sg11
F1.0
sg12
g738
sg13
F1.0
sssg19
F1.0
ssS'790963'
p740
(dp741
g3
F1.0
sg4
F100.0
sg5
I0
sg6
(dp742
S'174'
p743
(dp744
g10
F100.0
sg11
F1.0
sg12
g743
sg13
F1.0
sssg19
F1.0
ssS'790962'
p745
(dp746
g3
F2.0
sg4
F100.0
sg5
I0
sg6
(dp747
S'174'
p748
(dp749
g10
F100.0
sg11
F2.0
sg12
g748
sg13
F2.0
sssg19
F2.0
ssS'74932'
p750
(dp751
g3
F3.0
sg4
F60.0
sg5
I0
sg6
(dp752
S'121'
p753
(dp754
g10
F60.0
sg11
F3.0
sg12
g753
sg13
F5.0
sssg19
F5.0
ssS'7424'
p755
(dp756
g3
F1.0
sg4
F100.0
sg5
I0
sg6
(dp757
S'117'
p758
(dp759
g10
F100.0
sg11
F1.0
sg12
g16
sg13
F1.0
sssg19
F1.0
ssS'7421'
p760
(dp761
g3
F1.0
sg4
F100.0
sg5
I0
sg6
(dp762
S'117'
p763
(dp764
g10
F100.0
sg11
F1.0
sg12
g16
sg13
F1.0
sssg19
F1.0
ssS'73843'
p765
(dp766
g3
I0
sg4
F0.0
sg5
I0
sg6
(dp767
g65
(dp768
g10
F0.0
sg11
I0
sg12
g16
sg13
F2.0
sssg19
F2.0
ssS'79057'
p769
(dp770
g3
F17.0
sg4
F68.0
sg5
I0
sg6
(dp771
S'117'
p772
(dp773
g10
F100.0
sg11
F1.0
sg12
g16
sg13
F1.0
ssS'174'
p774
(dp775
g10
F66.666666666666657
sg11
F16.0
sg12
g774
sg13
F24.0
sssg19
F25.0
ssS'79055'
p776
(dp777
g3
F11.0
sg4
F57.894736842105267
sg5
I0
sg6
(dp778
S'174'
p779
(dp780
g10
F57.894736842105267
sg11
F11.0
sg12
g779
sg13
F19.0
sssg19
F19.0
ssS'73919'
p781
(dp782
g3
F3.0
sg4
F50.0
sg5
I0
sg6
(dp783
g168
(dp784
g10
F50.0
sg11
F3.0
sg12
g16
sg13
F6.0
sssg19
F6.0
ssS'78112'
p785
(dp786
g3
F1.0
sg4
F100.0
sg5
I0
sg6
(dp787
g28
(dp788
g10
F100.0
sg11
F1.0
sg12
g16
sg13
F1.0
sssg19
F1.0
ssS'791972'
p789
(dp790
g3
F1.0
sg4
F100.0
sg5
I0
sg6
(dp791
S'174'
p792
(dp793
g10
F100.0
sg11
F1.0
sg12
g792
sg13
F1.0
sssg19
F1.0
ssS'79672'
p794
(dp795
g3
F2.0
sg4
F100.0
sg5
I0
sg6
(dp796
S'174'
p797
(dp798
g10
F100.0
sg11
F2.0
sg12
g797
sg13
F2.0
sssg19
F2.0
ssS'79670'
p799
(dp800
g3
F4.0
sg4
F100.0
sg5
I0
sg6
(dp801
S'174'
p802
(dp803
g10
F100.0
sg11
F4.0
sg12
g802
sg13
F4.0
sssg19
F4.0
ssS'73422'
p804
(dp805
g3
F3.0
sg4
F50.0
sg5
I0
sg6
(dp806
S'117'
p807
(dp808
g10
F75.0
sg11
F3.0
sg12
g16
sg13
F4.0
ssS'174'
p809
(dp810
g10
F0.0
sg11
I0
sg12
g809
sg13
F2.0
sssg19
F6.0
ssS'7496'
p811
(dp812
g3
F9.0
sg4
F29.032258064516132
sg5
I0
sg6
(dp813
g332
(dp814
g10
F0.0
sg11
I0
sg12
g332
sg13
F1.0
ssS'121'
p815
(dp816
g10
F26.923076923076923
sg11
F7.0
sg12
g815
sg13
F26.0
ssg262
(dp817
g10
F50.0
sg11
F2.0
sg12
g16
sg13
F4.0
sssg19
F31.0
ssS'7346'
p818
(dp819
g3
F1.0
sg4
F100.0
sg5
I0
sg6
(dp820
S'117'
p821
(dp822
g10
F100.0
sg11
F1.0
sg12
g16
sg13
F1.0
sssg19
F1.0
ssS'7347'
p823
(dp824
g3
F2.0
sg4
F33.333333333333329
sg5
I0
sg6
(dp825
g183
(dp826
g10
F33.333333333333329
sg11
F2.0
sg12
g16
sg13
F6.0
sssg19
F6.0
ssS'7925517'
p827
(dp828
g3
I0
sg4
F0.0
sg5
I0
sg6
(dp829
S'117'
p830
(dp831
g10
F0.0
sg11
I0
sg12
g16
sg13
F1.0
sssg19
F1.0
ssS'7342'
p832
(dp833
g3
F3.0
sg4
F50.0
sg5
I0
sg6
(dp834
g807
(dp835
g10
F75.0
sg11
F3.0
sg12
g16
sg13
F4.0
ssg809
(dp836
g10
F0.0
sg11
I0
sg12
g809
sg13
F2.0
sssg19
F6.0
ssS'7343'
p837
(dp838
g3
F3.0
sg4
F75.0
sg5
I0
sg6
(dp839
S'117'
p840
(dp841
g10
F75.0
sg11
F3.0
sg12
g16
sg13
F4.0
sssg19
F4.0
ssS'749656'
p842
(dp843
g3
F1.0
sg4
F16.666666666666664
sg5
I0
sg6
(dp844
S'121'
p845
(dp846
g10
F16.666666666666664
sg11
F1.0
sg12
g845
sg13
F6.0
sssg19
F6.0
ssS'783143'
p847
(dp848
g3
F1.0
sg4
F100.0
sg5
I0
sg6
(dp849
S'117'
p850
(dp851
g10
F100.0
sg11
F1.0
sg12
g16
sg13
F1.0
sssg19
F1.0
ssS'7916'
p852
(dp853
g3
F95.0
sg4
F62.913907284768214
sg5
I0
sg6
(dp854
S'121'
p855
(dp856
g10
F100.0
sg11
F1.0
sg12
g855
sg13
F1.0
ssS'117'
p857
(dp858
g10
F65.686274509803923
sg11
F67.0
sg12
g16
sg13
F102.0
ssS'174'
p859
(dp860
g10
F55.813953488372093
sg11
F24.0
sg12
g859
sg13
F43.0
ssS'17'
p861
(dp862
g10
F100.0
sg11
F1.0
sg12
g214
sg13
F1.0
ssS'163'
p863
(dp864
g10
F50.0
sg11
F2.0
sg12
g863
sg13
F4.0
sssg19
F151.0
ssS'739193'
p865
(dp866
g3
F3.0
sg4
F50.0
sg5
I0
sg6
(dp867
g168
(dp868
g10
F50.0
sg11
F3.0
sg12
g16
sg13
F6.0
sssg19
F6.0
ssS'7349'
p869
(dp870
g3
F1.0
sg4
F50.0
sg5
I0
sg6
(dp871
S'117'
p872
(dp873
g10
F50.0
sg11
F1.0
sg12
g16
sg13
F2.0
sssg19
F2.0
ssS'7498'
p874
(dp875
g3
F15.0
sg4
F88.235294117647058
sg5
I0
sg6
(dp876
S'174'
p877
(dp878
g10
F0.0
sg11
I0
sg12
g877
sg13
F1.0
ssS'117'
p879
(dp880
g10
F100.0
sg11
F8.0
sg12
g16
sg13
F8.0
ssg464
(dp881
g10
F85.714285714285708
sg11
F6.0
sg12
g464
sg13
F7.0
ssS'71'
p882
(dp883
g10
F100.0
sg11
F1.0
sg12
g882
sg13
F1.0
sssg19
F17.0
ssS'7499'
p884
(dp885
g3
F233.0
sg4
F72.585669781931458
sg5
I3
sg6
(dp886
S'155'
p887
(dp888
g10
F50.0
sg11
F2.0
sg12
g72
sg13
F4.0
ssS'158'
p889
(dp890
g10
F100.0
sg11
F2.0
sg12
g889
sg13
F2.0
ssg474
(dp891
g10
F70.807453416149073
sg11
F114.0
sg12
g16
sg13
F161.0
ssg416
(dp892
g10
F100.0
sg11
F3.0
sg12
g416
sg13
F3.0
ssS'64'
p893
(dp894
g10
F100.0
sg11
F3.0
sg12
g512
sg13
F3.0
ssS'83'
p895
(dp896
g10
F87.5
sg11
F7.0
sg12
g895
sg13
F8.0
ssS'174'
p897
(dp898
g10
F60.416666666666664
sg11
F29.0
sg12
g897
sg13
F48.0
ssg571
(dp899
g10
F80.0
sg11
F8.0
sg12
g571
sg13
F10.0
ssg575
(dp900
g10
F100.0
sg11
F4.0
sg12
g577
sg13
F4.0
ssg436
(dp901
g10
F0.0
sg11
I0
sg12
g436
sg13
F3.0
ssS'78'
p902
(dp903
g10
F76.470588235294116
sg11
F26.0
sg12
g902
sg13
F34.0
ssS'147'
p904
(dp905
g10
F100.0
sg11
F2.0
sg12
g904
sg13
F2.0
ssS'121'
p906
(dp907
g10
F100.0
sg11
F9.0
sg12
g906
sg13
F9.0
ssg442
(dp908
g10
F100.0
sg11
F4.0
sg12
g442
sg13
F4.0
ssS'71'
p909
(dp910
g10
F66.666666666666657
sg11
F2.0
sg12
g909
sg13
F3.0
ssg488
(dp911
g10
F66.666666666666657
sg11
F6.0
sg12
g155
sg13
F9.0
ssS'97'
p912
(dp913
g10
F0.0
sg11
I0
sg12
g539
sg13
F1.0
ssS'163'
p914
(dp915
g10
F100.0
sg11
F1.0
sg12
g914
sg13
F1.0
ssS'10'
p916
(dp917
g10
F100.0
sg11
F1.0
sg12
g916
sg13
F1.0
ssS'55'
p918
(dp919
g10
F100.0
sg11
F1.0
sg12
g918
sg13
F1.0
ssS'54'
p920
(dp921
g10
F0.0
sg11
I0
sg12
g920
sg13
F1.0
ssS'37'
p922
(dp923
g10
F100.0
sg11
F1.0
sg12
g922
sg13
F1.0
ssS'35'
p924
(dp925
g10
F100.0
sg11
F2.0
sg12
g924
sg13
F2.0
ssg478
(dp926
g10
F100.0
sg11
F3.0
sg12
g478
sg13
F3.0
sssg19
F321.0
ssS'73852'
p927
(dp928
g3
F1.0
sg4
F100.0
sg5
I0
sg6
(dp929
g70
(dp930
g10
F100.0
sg11
F1.0
sg12
g72
sg13
F1.0
sssg19
F1.0
ssS'7492'
p931
(dp932
g3
I0
sg4
F0.0
sg5
I0
sg6
(dp933
g406
(dp934
g10
F0.0
sg11
I0
sg12
g16
sg13
F2.0
sssg19
F2.0
ssS'7493'
p935
(dp936
g3
F3.0
sg4
F60.0
sg5
I0
sg6
(dp937
g753
(dp938
g10
F60.0
sg11
F3.0
sg12
g753
sg13
F5.0
sssg19
F5.0
ssS'7491'
p939
(dp940
g3
F4.0
sg4
F44.444444444444443
sg5
I0
sg6
(dp941
S'117'
p942
(dp943
g10
F44.444444444444443
sg11
F4.0
sg12
g16
sg13
F9.0
sssg19
F9.0
ssS'79104'
p944
(dp945
g3
F18.0
sg4
F69.230769230769226
sg5
I0
sg6
(dp946
S'117'
p947
(dp948
g10
F70.588235294117652
sg11
F12.0
sg12
g16
sg13
F17.0
ssS'174'
p949
(dp950
g10
F66.666666666666657
sg11
F6.0
sg12
g949
sg13
F9.0
sssg19
F26.0
ssS'78212'
p951
(dp952
g3
F1.0
sg4
F100.0
sg5
I0
sg6
(dp953
S'117'
p954
(dp955
g10
F100.0
sg11
F1.0
sg12
g16
sg13
F1.0
sssg19
F1.0
ssS'7495'
p956
(dp957
g3
F2087.0
sg4
F76.61527165932452
sg5
I144
sg6
(dp958
g550
(dp959
g10
F96.875
sg11
F31.0
sg12
g550
sg13
F32.0
ssg552
(dp960
g10
F76.470588235294116
sg11
F13.0
sg12
g554
sg13
F17.0
ssg500
(dp961
g10
F100.0
sg11
F2.0
sg12
g500
sg13
F2.0
ssS'155'
p962
(dp963
g10
F57.142857142857139
sg11
F4.0
sg12
g72
sg13
F7.0
ssg418
(dp964
g10
F66.666666666666657
sg11
F2.0
sg12
g418
sg13
F3.0
ssg557
(dp965
g10
F100.0
sg11
F7.0
sg12
g557
sg13
F7.0
ssg559
(dp966
g10
F94.444444444444443
sg11
F17.0
sg12
g559
sg13
F18.0
ssg561
(dp967
g10
F100.0
sg11
F3.0
sg12
g561
sg13
F3.0
ssg452
(dp968
g10
F16.666666666666664
sg11
F2.0
sg12
g452
sg13
F12.0
ssg524
(dp969
g10
F60.0
sg11
F3.0
sg12
g524
sg13
F5.0
ssS'43'
p970
(dp971
g10
F100.0
sg11
F1.0
sg12
g577
sg13
F1.0
ssg506
(dp972
g10
F100.0
sg11
F2.0
sg12
g506
sg13
F2.0
ssg472
(dp973
g10
F85.714285714285708
sg11
F6.0
sg12
g472
sg13
F7.0
ssS'117'
p974
(dp975
g10
F79.722222222222229
sg11
F574.0
sg12
g16
sg13
F720.0
ssg476
(dp976
g10
F100.0
sg11
F10.0
sg12
g476
sg13
F10.0
ssg510
(dp977
g10
F100.0
sg11
F10.0
sg12
g512
sg13
F10.0
ssg504
(dp978
g10
F90.909090909090907
sg11
F20.0
sg12
g504
sg13
F22.0
ssg480
(dp979
g10
F100.0
sg11
F3.0
sg12
g480
sg13
F3.0
ssg482
(dp980
g10
F68.0
sg11
F17.0
sg12
g482
sg13
F25.0
ssg514
(dp981
g10
F76.0
sg11
F19.0
sg12
g514
sg13
F25.0
ssg516
(dp982
g10
F50.595238095238095
sg11
F255.0
sg12
g516
sg13
F504.0
ssg533
(dp983
g10
F100.0
sg11
F1.0
sg12
g533
sg13
F1.0
ssg518
(dp984
g10
F100.0
sg11
F6.0
sg12
g518
sg13
F6.0
ssg422
(dp985
g10
F100.0
sg11
F1.0
sg12
g422
sg13
F1.0
ssg424
(dp986
g10
F100.0
sg11
F3.0
sg12
g424
sg13
F3.0
ssg426
(dp987
g10
F50.0
sg11
F1.0
sg12
g426
sg13
F2.0
ssg428
(dp988
g10
F100.0
sg11
F1.0
sg12
g428
sg13
F1.0
ssg430
(dp989
g10
F81.818181818181827
sg11
F18.0
sg12
g430
sg13
F22.0
ssg565
(dp990
g10
F73.68421052631578
sg11
F14.0
sg12
g565
sg13
F19.0
ssg567
(dp991
g10
F100.0
sg11
F5.0
sg12
g567
sg13
F5.0
ssg432
(dp992
g10
F100.0
sg11
F2.0
sg12
g432
sg13
F2.0
ssg569
(dp993
g10
F68.75
sg11
F11.0
sg12
g569
sg13
F16.0
ssS'45'
p994
(dp995
g10
F79.310344827586206
sg11
F23.0
sg12
g994
sg13
F29.0
ssg573
(dp996
g10
F80.0
sg11
F4.0
sg12
g573
sg13
F5.0
ssg434
(dp997
g10
F100.0
sg11
F7.0
sg12
g434
sg13
F7.0
ssg578
(dp998
g10
F100.0
sg11
F3.0
sg12
g578
sg13
F3.0
ssg580
(dp999
g10
F80.952380952380949
sg11
F17.0
sg12
g580
sg13
F21.0
ssg540
(dp1000
g10
F100.0
sg11
F1.0
sg12
g540
sg13
F1.0
ssg520
(dp1001
g10
F100.0
sg11
F2.0
sg12
g520
sg13
F2.0
ssg603
(dp1002
g10
F100.0
sg11
F4.0
sg12
g603
sg13
F4.0
ssg494
(dp1003
g10
F100.0
sg11
F2.0
sg12
g494
sg13
F2.0
ssg584
(dp1004
g10
F100.0
sg11
F1.0
sg12
g586
sg13
F1.0
ssg438
(dp1005
g10
F92.307692307692307
sg11
F12.0
sg12
g438
sg13
F13.0
ssg420
(dp1006
g10
F100.0
sg11
F2.0
sg12
g420
sg13
F2.0
ssg587
(dp1007
g10
F0.0
sg11
I0
sg12
g587
sg13
F1.0
ssg589
(dp1008
g10
F79.411764705882348
sg11
F27.0
sg12
g589
sg13
F34.0
ssg591
(dp1009
g10
F100.0
sg11
F1.0
sg12
g591
sg13
F1.0
ssg593
(dp1010
g10
F90.243902439024396
sg11
F37.0
sg12
g593
sg13
F41.0
ssg595
(dp1011
g10
F100.0
sg11
F1.0
sg12
g595
sg13
F1.0
ssg454
(dp1012
g10
F100.0
sg11
F1.0
sg12
g454
sg13
F1.0
ssg484
(dp1013
g10
F100.0
sg11
F3.0
sg12
g484
sg13
F3.0
ssg522
(dp1014
g10
F46.428571428571431
sg11
F13.0
sg12
g522
sg13
F28.0
ssg544
(dp1015
g10
F100.0
sg11
F2.0
sg12
g544
sg13
F2.0
ssg440
(dp1016
g10
F77.064220183486242
sg11
F84.0
sg12
g440
sg13
F109.0
ssg597
(dp1017
g10
F100.0
sg11
F30.0
sg12
g597
sg13
F30.0
ssg444
(dp1018
g10
F60.0
sg11
F3.0
sg12
g444
sg13
F5.0
ssg446
(dp1019
g10
F100.0
sg11
F3.0
sg12
g446
sg13
F3.0
ssg448
(dp1020
g10
F100.0
sg11
F3.0
sg12
g448
sg13
F3.0
ssg599
(dp1021
g10
F90.909090909090907
sg11
F10.0
sg12
g599
sg13
F11.0
ssg601
(dp1022
g10
F80.0
sg11
F12.0
sg12
g601
sg13
F15.0
ssg529
(dp1023
g10
F100.0
sg11
F18.0
sg12
g529
sg13
F18.0
ssg456
(dp1024
g10
F83.333333333333343
sg11
F5.0
sg12
g456
sg13
F6.0
ssg490
(dp1025
g10
F92.307692307692307
sg11
F12.0
sg12
g490
sg13
F13.0
ssg492
(dp1026
g10
F100.0
sg11
F3.0
sg12
g492
sg13
F3.0
ssg537
(dp1027
g10
F66.666666666666657
sg11
F4.0
sg12
g539
sg13
F6.0
ssg605
(dp1028
g10
F90.993071593533486
sg11
F394.0
sg12
g605
sg13
F433.0
ssg486
(dp1029
g10
F60.0
sg11
F3.0
sg12
g486
sg13
F5.0
ssg542
(dp1030
g10
F50.0
sg11
F1.0
sg12
g542
sg13
F2.0
ssg496
(dp1031
g10
F85.714285714285708
sg11
F6.0
sg12
g496
sg13
F7.0
ssg563
(dp1032
g10
F66.666666666666657
sg11
F2.0
sg12
g563
sg13
F3.0
ssg546
(dp1033
g10
F100.0
sg11
F2.0
sg12
g214
sg13
F2.0
ssg508
(dp1034
g10
F100.0
sg11
F1.0
sg12
g508
sg13
F1.0
ssg460
(dp1035
g10
F84.0
sg11
F63.0
sg12
g460
sg13
F75.0
ssg462
(dp1036
g10
F77.777777777777786
sg11
F7.0
sg12
g462
sg13
F9.0
ssS'56'
p1037
(dp1038
g10
F75.757575757575751
sg11
F25.0
sg12
g1037
sg13
F33.0
ssg502
(dp1039
g10
F100.0
sg11
F30.0
sg12
g502
sg13
F30.0
ssg548
(dp1040
g10
F100.0
sg11
F7.0
sg12
g548
sg13
F7.0
ssg466
(dp1041
g10
F100.0
sg11
F4.0
sg12
g466
sg13
F4.0
ssg468
(dp1042
g10
F100.0
sg11
F1.0
sg12
g468
sg13
F1.0
ssg498
(dp1043
g10
F90.909090909090907
sg11
F20.0
sg12
g498
sg13
F22.0
ssg450
(dp1044
g10
F100.0
sg11
F1.0
sg12
g450
sg13
F1.0
ssg531
(dp1045
g10
F75.0
sg11
F6.0
sg12
g531
sg13
F8.0
sssg19
F2724.0
ssS'734368'
p1046
(dp1047
g3
F1.0
sg4
F100.0
sg5
I0
sg6
(dp1048
g840
(dp1049
g10
F100.0
sg11
F1.0
sg12
g16
sg13
F1.0
sssg19
F1.0
ssS'7411'
p1050
(dp1051
g3
I0
sg4
F0.0
sg5
I0
sg6
(dp1052
g708
(dp1053
g10
F0.0
sg11
I0
sg12
g16
sg13
F1.0
sssg19
F1.0
ssS'7985'
p1054
(dp1055
g3
F33.0
sg4
F57.894736842105267
sg5
I1
sg6
(dp1056
g470
(dp1057
g10
F100.0
sg11
F1.0
sg12
g361
sg13
F1.0
ssS'117'
p1058
(dp1059
g10
F56.756756756756758
sg11
F21.0
sg12
g16
sg13
F37.0
ssS'174'
p1060
(dp1061
g10
F61.111111111111114
sg11
F11.0
sg12
g1060
sg13
F18.0
sssg19
F57.0
ssS'7415'
p1062
(dp1063
g3
F1.0
sg4
F100.0
sg5
I0
sg6
(dp1064
g250
(dp1065
g10
F100.0
sg11
F1.0
sg12
g16
sg13
F1.0
sssg19
F1.0
ssS'79060'
p1066
(dp1067
g3
F6.0
sg4
F75.0
sg5
I0
sg6
(dp1068
S'174'
p1069
(dp1070
g10
F75.0
sg11
F6.0
sg12
g1069
sg13
F8.0
sssg19
F8.0
ssS'79067'
p1071
(dp1072
g3
F10.0
sg4
F71.428571428571431
sg5
I0
sg6
(dp1073
S'121'
p1074
(dp1075
g10
F33.333333333333329
sg11
F1.0
sg12
g1074
sg13
F3.0
ssS'174'
p1076
(dp1077
g10
F81.818181818181827
sg11
F9.0
sg12
g1076
sg13
F11.0
sssg19
F14.0
ssS'78452'
p1078
(dp1079
g3
F1.0
sg4
F100.0
sg5
I0
sg6
(dp1080
S'117'
p1081
(dp1082
g10
F100.0
sg11
F1.0
sg12
g16
sg13
F1.0
sssg19
F1.0
ssS'796470'
p1083
(dp1084
g3
F2.0
sg4
F100.0
sg5
I0
sg6
(dp1085
S'174'
p1086
(dp1087
g10
F100.0
sg11
F2.0
sg12
g1086
sg13
F2.0
sssg19
F2.0
ssS'7926'
p1088
(dp1089
g3
F129.0
sg4
F74.137931034482762
sg5
I1
sg6
(dp1090
S'121'
p1091
(dp1092
g10
F0.0
sg11
I0
sg12
g1091
sg13
F1.0
ssS'117'
p1093
(dp1094
g10
F71.666666666666671
sg11
F86.0
sg12
g16
sg13
F120.0
ssS'174'
p1095
(dp1096
g10
F83.720930232558146
sg11
F36.0
sg12
g1095
sg13
F43.0
ssg526
(dp1097
g10
F80.0
sg11
F4.0
sg12
g528
sg13
F5.0
ssS'163'
p1098
(dp1099
g10
F75.0
sg11
F3.0
sg12
g1098
sg13
F4.0
sssg19
F174.0
ssS'73433'
p1100
(dp1101
g3
F2.0
sg4
F66.666666666666657
sg5
I0
sg6
(dp1102
S'117'
p1103
(dp1104
g10
F66.666666666666657
sg11
F2.0
sg12
g16
sg13
F3.0
sssg19
F3.0
ssS'78469'
p1105
(dp1106
g3
F1.0
sg4
F100.0
sg5
I0
sg6
(dp1107
S'117'
p1108
(dp1109
g10
F100.0
sg11
F1.0
sg12
g16
sg13
F1.0
sssg19
F1.0
ssS'74964'
p1110
(dp1111
g3
F3.0
sg4
F50.0
sg5
I0
sg6
(dp1112
g678
(dp1113
g10
F50.0
sg11
F3.0
sg12
g678
sg13
F6.0
sssg19
F6.0
ssS'7351'
p1114
(dp1115
g3
F6.0
sg4
F75.0
sg5
I0
sg6
(dp1116
g657
(dp1117
g10
F75.0
sg11
F6.0
sg12
g16
sg13
F8.0
sssg19
F8.0
ssS'7484'
p1118
(dp1119
g3
F1.0
sg4
F100.0
sg5
I0
sg6
(dp1120
g50
(dp1121
g10
F100.0
sg11
F1.0
sg12
g50
sg13
F1.0
sssg19
F1.0
ssS'7487'
p1122
(dp1123
g3
F4.0
sg4
F33.333333333333329
sg5
I0
sg6
(dp1124
S'117'
p1125
(dp1126
g10
F33.333333333333329
sg11
F4.0
sg12
g16
sg13
F12.0
sssg19
F12.0
ssS'7486'
p1127
(dp1128
g3
F4.0
sg4
F100.0
sg5
I0
sg6
(dp1129
S'117'
p1130
(dp1131
g10
F100.0
sg11
F4.0
sg12
g16
sg13
F4.0
sssg19
F4.0
ssS'79652'
p1132
(dp1133
g3
F2.0
sg4
F66.666666666666657
sg5
I0
sg6
(dp1134
g138
(dp1135
g10
F66.666666666666657
sg11
F2.0
sg12
g138
sg13
F3.0
sssg19
F3.0
ssS'7483'
p1136
(dp1137
g3
F4.0
sg4
F36.363636363636367
sg5
I0
sg6
(dp1138
S'121'
p1139
(dp1140
g10
F0.0
sg11
I0
sg12
g1139
sg13
F2.0
ssS'117'
p1141
(dp1142
g10
F44.444444444444443
sg11
F4.0
sg12
g16
sg13
F9.0
sssg19
F11.0
ssS'7482'
p1143
(dp1144
g3
F1.0
sg4
F100.0
sg5
I0
sg6
(dp1145
S'117'
p1146
(dp1147
g10
F100.0
sg11
F1.0
sg12
g16
sg13
F1.0
sssg19
F1.0
ssS'7845'
p1148
(dp1149
g3
F2.0
sg4
F100.0
sg5
I0
sg6
(dp1150
g1081
(dp1151
g10
F100.0
sg11
F2.0
sg12
g16
sg13
F2.0
sssg19
F2.0
ssS'7846'
p1152
(dp1153
g3
F7.0
sg4
F100.0
sg5
I0
sg6
(dp1154
S'117'
p1155
(dp1156
g10
F100.0
sg11
F2.0
sg12
g16
sg13
F2.0
ssS'174'
p1157
(dp1158
g10
F100.0
sg11
F5.0
sg12
g1157
sg13
F5.0
sssg19
F7.0
ssS'7841'
p1159
(dp1160
g3
I0
sg4
F0.0
sg5
I0
sg6
(dp1161
g143
(dp1162
g10
F0.0
sg11
I0
sg12
g16
sg13
F3.0
sssg19
F3.0
ssS'7843'
p1163
(dp1164
g3
F5.0
sg4
F71.428571428571431
sg5
I0
sg6
(dp1165
g610
(dp1166
g10
F71.428571428571431
sg11
F5.0
sg12
g16
sg13
F7.0
sssg19
F7.0
ssS'7842'
p1167
(dp1168
g3
F1.0
sg4
F100.0
sg5
I0
sg6
(dp1169
g718
(dp1170
g10
F100.0
sg11
F1.0
sg12
g16
sg13
F1.0
sssg19
F1.0
ssS'7879'
p1171
(dp1172
g3
F1.0
sg4
F100.0
sg5
I0
sg6
(dp1173
g713
(dp1174
g10
F100.0
sg11
F1.0
sg12
g713
sg13
F1.0
sssg19
F1.0
ssS'74212'
p1175
(dp1176
g3
F1.0
sg4
F100.0
sg5
I0
sg6
(dp1177
g763
(dp1178
g10
F100.0
sg11
F1.0
sg12
g16
sg13
F1.0
sssg19
F1.0
ssS'7925380'
p1179
(dp1180
g3
I0
sg4
F0.0
sg5
I0
sg6
(dp1181
S'117'
p1182
(dp1183
g10
F0.0
sg11
I0
sg12
g16
sg13
F2.0
sssg19
F2.0
ssS'7925384'
p1184
(dp1185
g3
F1.0
sg4
F50.0
sg5
I1
sg6
(dp1186
S'117'
p1187
(dp1188
g10
F100.0
sg11
F1.0
sg12
g16
sg13
F1.0
sssg19
F2.0
ssS'784699'
p1189
(dp1190
g3
F1.0
sg4
F100.0
sg5
I0
sg6
(dp1191
g1108
(dp1192
g10
F100.0
sg11
F1.0
sg12
g16
sg13
F1.0
sssg19
F1.0
ssS'79175'
p1193
(dp1194
g3
F5.0
sg4
F50.0
sg5
I0
sg6
(dp1195
S'117'
p1196
(dp1197
g10
F20.0
sg11
F1.0
sg12
g16
sg13
F5.0
ssS'174'
p1198
(dp1199
g10
F80.0
sg11
F4.0
sg12
g1198
sg13
F5.0
sssg19
F10.0
ssS'74912'
p1200
(dp1201
g3
F4.0
sg4
F44.444444444444443
sg5
I0
sg6
(dp1202
g942
(dp1203
g10
F44.444444444444443
sg11
F4.0
sg12
g16
sg13
F9.0
sssg19
F9.0
ssS'790368'
p1204
(dp1205
g3
F5.0
sg4
F100.0
sg5
I0
sg6
(dp1206
S'121'
p1207
(dp1208
g10
F100.0
sg11
F1.0
sg12
g1207
sg13
F1.0
ssS'174'
p1209
(dp1210
g10
F100.0
sg11
F4.0
sg12
g1209
sg13
F4.0
sssg19
F5.0
ssS'79099'
p1211
(dp1212
g3
F9.0
sg4
F81.818181818181827
sg5
I0
sg6
(dp1213
S'121'
p1214
(dp1215
g10
F0.0
sg11
I0
sg12
g1214
sg13
F1.0
ssS'174'
p1216
(dp1217
g10
F90.0
sg11
F9.0
sg12
g1216
sg13
F10.0
sssg19
F11.0
ssS'74832'
p1218
(dp1219
g3
F4.0
sg4
F36.363636363636367
sg5
I0
sg6
(dp1220
g1139
(dp1221
g10
F0.0
sg11
I0
sg12
g1139
sg13
F2.0
ssg1141
(dp1222
g10
F44.444444444444443
sg11
F4.0
sg12
g16
sg13
F9.0
sssg19
F11.0
ssS'79651'
p1223
(dp1224
g3
F4.0
sg4
F44.444444444444443
sg5
I0
sg6
(dp1225
S'174'
p1226
(dp1227
g10
F44.444444444444443
sg11
F4.0
sg12
g1226
sg13
F9.0
sssg19
F9.0
ssS'791999'
p1228
(dp1229
g3
F2.0
sg4
F100.0
sg5
I0
sg6
(dp1230
S'117'
p1231
(dp1232
g10
F100.0
sg11
F2.0
sg12
g16
sg13
F2.0
sssg19
F2.0
ssS'79653'
p1233
(dp1234
g3
F8.0
sg4
F72.727272727272734
sg5
I1
sg6
(dp1235
S'121'
p1236
(dp1237
g10
F100.0
sg11
F1.0
sg12
g1236
sg13
F1.0
ssS'174'
p1238
(dp1239
g10
F75.0
sg11
F6.0
sg12
g1238
sg13
F8.0
ssS'155'
p1240
(dp1241
g10
F100.0
sg11
F1.0
sg12
g72
sg13
F1.0
sssg19
F11.0
ssS'792535'
p1242
(dp1243
g3
F1.0
sg4
F100.0
sg5
I0
sg6
(dp1244
S'117'
p1245
(dp1246
g10
F100.0
sg11
F1.0
sg12
g16
sg13
F1.0
sssg19
F1.0
ssS'749673'
p1247
(dp1248
g3
F1.0
sg4
F100.0
sg5
I0
sg6
(dp1249
S'121'
p1250
(dp1251
g10
F100.0
sg11
F1.0
sg12
g1250
sg13
F1.0
sssg19
F1.0
ssS'7831'
p1252
(dp1253
g3
F4.0
sg4
F66.666666666666657
sg5
I0
sg6
(dp1254
S'117'
p1255
(dp1256
g10
F66.666666666666657
sg11
F4.0
sg12
g16
sg13
F6.0
sssg19
F6.0
ssS'749677'
p1257
(dp1258
g3
I0
sg4
F0.0
sg5
I0
sg6
(dp1259
S'121'
p1260
(dp1261
g10
F0.0
sg11
I0
sg12
g1260
sg13
F1.0
sssg19
F1.0
ssS'7835'
p1262
(dp1263
g3
F1.0
sg4
F100.0
sg5
I0
sg6
(dp1264
g647
(dp1265
g10
F100.0
sg11
F1.0
sg12
g16
sg13
F1.0
sssg19
F1.0
ssS'79250'
p1266
(dp1267
g3
F11.0
sg4
F68.75
sg5
I0
sg6
(dp1268
S'117'
p1269
(dp1270
g10
F69.230769230769226
sg11
F9.0
sg12
g16
sg13
F13.0
ssS'174'
p1271
(dp1272
g10
F100.0
sg11
F2.0
sg12
g1271
sg13
F2.0
ssg555
(dp1273
g10
F0.0
sg11
I0
sg12
g72
sg13
F1.0
sssg19
F16.0
ssS'73833'
p1274
(dp1275
g3
F3.0
sg4
F100.0
sg5
I0
sg6
(dp1276
g40
(dp1277
g10
F100.0
sg11
F3.0
sg12
g16
sg13
F3.0
sssg19
F3.0
ssS'796396'
p1278
(dp1279
g3
F1.0
sg4
F50.0
sg5
I0
sg6
(dp1280
S'174'
p1281
(dp1282
g10
F50.0
sg11
F1.0
sg12
g1281
sg13
F2.0
sssg19
F2.0
ssS'74242'
p1283
(dp1284
g3
F1.0
sg4
F100.0
sg5
I0
sg6
(dp1285
g758
(dp1286
g10
F100.0
sg11
F1.0
sg12
g16
sg13
F1.0
sssg19
F1.0
ssS'49'
p1287
(dp1288
g3
F3.0
sg4
F100.0
sg5
I0
sg6
(dp1289
S'121'
p1290
(dp1291
g10
F100.0
sg11
F2.0
sg12
g1290
sg13
F2.0
ssS'117'
p1292
(dp1293
g10
F100.0
sg11
F1.0
sg12
g16
sg13
F1.0
sssg19
F3.0
ssS'79258'
p1294
(dp1295
g3
F3.0
sg4
F75.0
sg5
I0
sg6
(dp1296
S'117'
p1297
(dp1298
g10
F100.0
sg11
F2.0
sg12
g16
sg13
F2.0
ssS'174'
p1299
(dp1300
g10
F50.0
sg11
F1.0
sg12
g1299
sg13
F2.0
sssg19
F4.0
ssS'44'
p1301
(dp1302
g3
F2.0
sg4
F100.0
sg5
I0
sg6
(dp1303
S'117'
p1304
(dp1305
g10
F100.0
sg11
F2.0
sg12
g16
sg13
F2.0
sssg19
F2.0
ssS'792533'
p1306
(dp1307
g3
I0
sg4
F0.0
sg5
I0
sg6
(dp1308
S'117'
p1309
(dp1310
g10
F0.0
sg11
I0
sg12
g16
sg13
F1.0
sssg19
F1.0
ssS'796399'
p1311
(dp1312
g3
F2.0
sg4
F100.0
sg5
I0
sg6
(dp1313
S'174'
p1314
(dp1315
g10
F100.0
sg11
F2.0
sg12
g1314
sg13
F2.0
sssg19
F2.0
ssS'791910'
p1316
(dp1317
g3
F1.0
sg4
F50.0
sg5
I0
sg6
(dp1318
S'174'
p1319
(dp1320
g10
F50.0
sg11
F1.0
sg12
g1319
sg13
F2.0
sssg19
F2.0
ssS'1'
p1321
(dp1322
g3
F7.0
sg4
F70.0
sg5
I0
sg6
(dp1323
S'117'
p1324
(dp1325
g10
F66.666666666666657
sg11
F6.0
sg12
g16
sg13
F9.0
ssS'163'
p1326
(dp1327
g10
F100.0
sg11
F1.0
sg12
g1326
sg13
F1.0
sssg19
F10.0
ssS'74872'
p1328
(dp1329
g3
F2.0
sg4
F50.0
sg5
I0
sg6
(dp1330
S'117'
p1331
(dp1332
g10
F50.0
sg11
F2.0
sg12
g16
sg13
F4.0
sssg19
F4.0
ssS'7925319'
p1333
(dp1334
g3
I0
sg4
F0.0
sg5
I0
sg6
(dp1335
S'174'
p1336
(dp1337
g10
F0.0
sg11
I0
sg12
g1336
sg13
F1.0
sssg19
F1.0
ssS'7471'
p1338
(dp1339
g3
F2.0
sg4
F100.0
sg5
I0
sg6
(dp1340
g148
(dp1341
g10
F100.0
sg11
F2.0
sg12
g16
sg13
F2.0
sssg19
F2.0
ssS'7472'
p1342
(dp1343
g3
F3.0
sg4
F75.0
sg5
I0
sg6
(dp1344
g315
(dp1345
g10
F100.0
sg11
F2.0
sg12
g16
sg13
F2.0
ssS'174'
p1346
(dp1347
g10
F50.0
sg11
F1.0
sg12
g1346
sg13
F2.0
sssg19
F4.0
ssS'735192'
p1348
(dp1349
g3
F1.0
sg4
F100.0
sg5
I0
sg6
(dp1350
S'117'
p1351
(dp1352
g10
F100.0
sg11
F1.0
sg12
g16
sg13
F1.0
sssg19
F1.0
ssS'7474'
p1353
(dp1354
g3
F2.0
sg4
F66.666666666666657
sg5
I0
sg6
(dp1355
S'117'
p1356
(dp1357
g10
F100.0
sg11
F2.0
sg12
g16
sg13
F2.0
ssg622
(dp1358
g10
F0.0
sg11
I0
sg12
g622
sg13
F1.0
sssg19
F3.0
ssS'7475'
p1359
(dp1360
g3
F3.0
sg4
F75.0
sg5
I0
sg6
(dp1361
S'117'
p1362
(dp1363
g10
F100.0
sg11
F2.0
sg12
g16
sg13
F2.0
ssS'174'
p1364
(dp1365
g10
F50.0
sg11
F1.0
sg12
g1364
sg13
F2.0
sssg19
F4.0
ssS'79629'
p1366
(dp1367
g3
F7.0
sg4
F87.5
sg5
I0
sg6
(dp1368
S'174'
p1369
(dp1370
g10
F87.5
sg11
F7.0
sg12
g1369
sg13
F8.0
sssg19
F8.0
ssS'73832'
p1371
(dp1372
g3
F3.0
sg4
F100.0
sg5
I0
sg6
(dp1373
g38
(dp1374
g10
F100.0
sg11
F1.0
sg12
g38
sg13
F1.0
ssS'117'
p1375
(dp1376
g10
F100.0
sg11
F2.0
sg12
g16
sg13
F2.0
sssg19
F3.0
ssS'781375'
p1377
(dp1378
g3
F1.0
sg4
F100.0
sg5
I0
sg6
(dp1379
S'117'
p1380
(dp1381
g10
F100.0
sg11
F1.0
sg12
g16
sg13
F1.0
sssg19
F1.0
ssS'78552'
p1382
(dp1383
g3
I0
sg4
F0.0
sg5
I0
sg6
(dp1384
g310
(dp1385
g10
F0.0
sg11
I0
sg12
g16
sg13
F1.0
sssg19
F1.0
ssS'792539'
p1386
(dp1387
g3
F1.0
sg4
F100.0
sg5
I0
sg6
(dp1388
S'117'
p1389
(dp1390
g10
F100.0
sg11
F1.0
sg12
g16
sg13
F1.0
sssg19
F1.0
ssS'792518'
p1391
(dp1392
g3
F2.0
sg4
F100.0
sg5
I0
sg6
(dp1393
S'117'
p1394
(dp1395
g10
F100.0
sg11
F1.0
sg12
g16
sg13
F1.0
ssS'174'
p1396
(dp1397
g10
F100.0
sg11
F1.0
sg12
g1396
sg13
F1.0
sssg19
F2.0
ssS'792519'
p1398
(dp1399
g3
F3.0
sg4
F100.0
sg5
I0
sg6
(dp1400
S'169'
p1401
(dp1402
g10
F100.0
sg11
F2.0
sg12
g528
sg13
F2.0
ssS'163'
p1403
(dp1404
g10
F100.0
sg11
F1.0
sg12
g1403
sg13
F1.0
sssg19
F3.0
ssS'796544'
p1405
(dp1406
g3
F1.0
sg4
F100.0
sg5
I0
sg6
(dp1407
S'174'
p1408
(dp1409
g10
F100.0
sg11
F1.0
sg12
g1408
sg13
F1.0
sssg19
F1.0
ssS'747467'
p1410
(dp1411
g3
F1.0
sg4
F100.0
sg5
I0
sg6
(dp1412
g1356
(dp1413
g10
F100.0
sg11
F1.0
sg12
g16
sg13
F1.0
sssg19
F1.0
ssS'792512'
p1414
(dp1415
g3
F1.0
sg4
F100.0
sg5
I0
sg6
(dp1416
S'117'
p1417
(dp1418
g10
F100.0
sg11
F1.0
sg12
g16
sg13
F1.0
sssg19
F1.0
ssS'7821'
p1419
(dp1420
g3
F2.0
sg4
F100.0
sg5
I0
sg6
(dp1421
g954
(dp1422
g10
F100.0
sg11
F2.0
sg12
g16
sg13
F2.0
sssg19
F2.0
ssS'792511'
p1423
(dp1424
g3
I0
sg4
F0.0
sg5
I0
sg6
(dp1425
S'117'
p1426
(dp1427
g10
F0.0
sg11
I0
sg12
g16
sg13
F1.0
sssg19
F1.0
ssS'7485'
p1428
(dp1429
g3
F3.0
sg4
F75.0
sg5
I0
sg6
(dp1430
g642
(dp1431
g10
F75.0
sg11
F3.0
sg12
g16
sg13
F4.0
sssg19
F4.0
ssS'79015'
p1432
(dp1433
g3
F5.0
sg4
F55.555555555555557
sg5
I0
sg6
(dp1434
S'174'
p1435
(dp1436
g10
F55.555555555555557
sg11
F5.0
sg12
g1435
sg13
F9.0
sssg19
F9.0
ssS'78462'
p1437
(dp1438
g3
F6.0
sg4
F100.0
sg5
I0
sg6
(dp1439
g1155
(dp1440
g10
F100.0
sg11
F1.0
sg12
g16
sg13
F1.0
ssg1157
(dp1441
g10
F100.0
sg11
F5.0
sg12
g1157
sg13
F5.0
sssg19
F6.0
ssS'79257'
p1442
(dp1443
g3
F4.0
sg4
F66.666666666666657
sg5
I0
sg6
(dp1444
S'117'
p1445
(dp1446
g10
F80.0
sg11
F4.0
sg12
g16
sg13
F5.0
ssS'174'
p1447
(dp1448
g10
F0.0
sg11
I0
sg12
g1447
sg13
F1.0
sssg19
F6.0
ssS'7353'
p1449
(dp1450
g3
F1.0
sg4
F100.0
sg5
I0
sg6
(dp1451
S'117'
p1452
(dp1453
g10
F100.0
sg11
F1.0
sg12
g16
sg13
F1.0
sssg19
F1.0
ssS'74862'
p1454
(dp1455
g3
F4.0
sg4
F100.0
sg5
I0
sg6
(dp1456
g1130
(dp1457
g10
F100.0
sg11
F4.0
sg12
g16
sg13
F4.0
sssg19
F4.0
ssS'7925368'
p1458
(dp1459
g3
F1.0
sg4
F100.0
sg5
I0
sg6
(dp1460
S'117'
p1461
(dp1462
g10
F100.0
sg11
F1.0
sg12
g16
sg13
F1.0
sssg19
F1.0
ssS'796462'
p1463
(dp1464
g3
I0
sg4
F0.0
sg5
I0
sg6
(dp1465
S'174'
p1466
(dp1467
g10
F0.0
sg11
I0
sg12
g1466
sg13
F1.0
ssS'163'
p1468
(dp1469
g10
F0.0
sg11
I0
sg12
g1468
sg13
F1.0
sssg19
F2.0
ssS'796463'
p1470
(dp1471
g3
F1.0
sg4
F50.0
sg5
I0
sg6
(dp1472
S'174'
p1473
(dp1474
g10
F50.0
sg11
F1.0
sg12
g1473
sg13
F2.0
sssg19
F2.0
ssS'749635'
p1475
(dp1476
g3
I0
sg4
F0.0
sg5
I0
sg6
(dp1477
g815
(dp1478
g10
F0.0
sg11
I0
sg12
g815
sg13
F1.0
sssg19
F1.0
ssS'79153'
p1479
(dp1480
g3
F10.0
sg4
F90.909090909090907
sg5
I0
sg6
(dp1481
S'117'
p1482
(dp1483
g10
F88.888888888888886
sg11
F8.0
sg12
g16
sg13
F9.0
ssS'174'
p1484
(dp1485
g10
F100.0
sg11
F2.0
sg12
g1484
sg13
F2.0
sssg19
F11.0
ssS'79152'
p1486
(dp1487
g3
F9.0
sg4
F75.0
sg5
I0
sg6
(dp1488
S'117'
p1489
(dp1490
g10
F75.0
sg11
F6.0
sg12
g16
sg13
F8.0
ssS'174'
p1491
(dp1492
g10
F75.0
sg11
F3.0
sg12
g1491
sg13
F4.0
sssg19
F12.0
ssS'79151'
p1493
(dp1494
g3
F8.0
sg4
F57.142857142857139
sg5
I0
sg6
(dp1495
S'117'
p1496
(dp1497
g10
F63.636363636363633
sg11
F7.0
sg12
g16
sg13
F11.0
ssS'174'
p1498
(dp1499
g10
F33.333333333333329
sg11
F1.0
sg12
g1498
sg13
F3.0
sssg19
F14.0
ssS'79150'
p1500
(dp1501
g3
F4.0
sg4
F50.0
sg5
I0
sg6
(dp1502
S'117'
p1503
(dp1504
g10
F33.333333333333329
sg11
F2.0
sg12
g16
sg13
F6.0
ssS'174'
p1505
(dp1506
g10
F100.0
sg11
F2.0
sg12
g1505
sg13
F2.0
sssg19
F8.0
ssS'79154'
p1507
(dp1508
g3
F5.0
sg4
F55.555555555555557
sg5
I0
sg6
(dp1509
S'117'
p1510
(dp1511
g10
F42.857142857142854
sg11
F3.0
sg12
g16
sg13
F7.0
ssS'174'
p1512
(dp1513
g10
F100.0
sg11
F2.0
sg12
g1512
sg13
F2.0
sssg19
F9.0
ss.