(dp0
S'133'
p1
(dp2
S'suc_calls'
p3
F2.0
sS'asr'
p4
F100.0
sS'codes'
p5
(dp6
S'7'
p7
(dp8
S'code_asr'
p9
F100.0
sS'code_calls'
p10
F1.0
sS'code_suc_calls'
p11
F1.0
ssS'7495'
p12
(dp13
g9
F100.0
sg10
F1.0
sg11
F1.0
sssS'tg_name'
p14
g1
sS'calls'
p15
F2.0
ssS'93'
p16
(dp17
g3
F16.0
sg4
F88.888888888888886
sg5
(dp18
g7
(dp19
g9
F88.888888888888886
sg10
F9.0
sg11
F8.0
ssg12
(dp20
g9
F88.888888888888886
sg10
F9.0
sg11
F8.0
sssg14
g16
sg15
F18.0
ssS'25'
p21
(dp22
g3
F34.0
sg4
F100.0
sg5
(dp23
g7
(dp24
g9
F100.0
sg10
F17.0
sg11
F17.0
ssg12
(dp25
g9
F100.0
sg10
F17.0
sg11
F17.0
sssg14
g21
sg15
F34.0
ssS'26'
p26
(dp27
g3
F5.0
sg4
F71.428571428571431
sg5
(dp28
g7
(dp29
g9
F75.0
sg10
F4.0
sg11
F3.0
ssg12
(dp30
g9
F66.666666666666657
sg10
F3.0
sg11
F2.0
sssg14
g26
sg15
F7.0
ssS'21'
p31
(dp32
g3
F4.0
sg4
F100.0
sg5
(dp33
g7
(dp34
g9
F100.0
sg10
F2.0
sg11
F2.0
ssg12
(dp35
g9
F100.0
sg10
F2.0
sg11
F2.0
sssg14
g31
sg15
F4.0
ssS'22'
p36
(dp37
g3
F18.0
sg4
F90.0
sg5
(dp38
S'7499'
p39
(dp40
g9
F100.0
sg10
F2.0
sg11
F2.0
ssg7
(dp41
g9
F90.0
sg10
F10.0
sg11
F9.0
ssg12
(dp42
g9
F87.5
sg10
F8.0
sg11
F7.0
sssg14
g36
sg15
F20.0
ssS'23'
p43
(dp44
g3
F16.0
sg4
F100.0
sg5
(dp45
g7
(dp46
g9
F100.0
sg10
F8.0
sg11
F8.0
ssg12
(dp47
g9
F100.0
sg10
F8.0
sg11
F8.0
sssg14
g43
sg15
F16.0
ssS'29'
p48
(dp49
g3
F22.0
sg4
F100.0
sg5
(dp50
g7
(dp51
g9
F100.0
sg10
F11.0
sg11
F11.0
ssg12
(dp52
g9
F100.0
sg10
F11.0
sg11
F11.0
sssg14
g48
sg15
F22.0
ssS'163'
p53
(dp54
g3
F63.0
sg4
F76.829268292682926
sg5
(dp55
S'7926'
p56
(dp57
g9
F100.0
sg10
F2.0
sg11
F2.0
ssg39
(dp58
g9
F100.0
sg10
F4.0
sg11
F4.0
ssS'79060'
p59
(dp60
g9
F50.0
sg10
F2.0
sg11
F1.0
ssS'7496'
p61
(dp62
g9
F100.0
sg10
F1.0
sg11
F1.0
ssS'79031'
p63
(dp64
g9
F100.0
sg10
F1.0
sg11
F1.0
ssS'44'
p65
(dp66
g9
F100.0
sg10
F3.0
sg11
F3.0
ssS'73462'
p67
(dp68
g9
F100.0
sg10
F2.0
sg11
F2.0
ssS'79636'
p69
(dp70
g9
F100.0
sg10
F1.0
sg11
F1.0
ssS'79035'
p71
(dp72
g9
F0.0
sg10
F1.0
sg11
I0
ssS'791999'
p73
(dp74
g9
F100.0
sg10
F1.0
sg11
F1.0
ssg12
(dp75
g9
F75.0
sg10
F8.0
sg11
F6.0
ssS'7346'
p76
(dp77
g9
F100.0
sg10
F2.0
sg11
F2.0
ssS'79175'
p78
(dp79
g9
F100.0
sg10
F1.0
sg11
F1.0
ssS'7985'
p80
(dp81
g9
F100.0
sg10
F1.0
sg11
F1.0
ssg7
(dp82
g9
F75.0
sg10
F40.0
sg11
F30.0
ssS'749621'
p83
(dp84
g9
F100.0
sg10
F1.0
sg11
F1.0
ssS'7925309'
p85
(dp86
g9
F0.0
sg10
F2.0
sg11
I0
ssS'79057'
p87
(dp88
g9
F100.0
sg10
F1.0
sg11
F1.0
ssS'79055'
p89
(dp90
g9
F0.0
sg10
F1.0
sg11
I0
ssS'7916'
p91
(dp92
g9
F66.666666666666657
sg10
F6.0
sg11
F4.0
ssS'800'
p93
(dp94
g9
F100.0
sg10
F1.0
sg11
F1.0
sssg14
S'163'
p95
sg15
F82.0
ssS'121'
p96
(dp97
g3
F321.0
sg4
F73.120728929384967
sg5
(dp98
S'791996'
p99
(dp100
g9
F100.0
sg10
F1.0
sg11
F1.0
ssS'79099'
p101
(dp102
g9
F0.0
sg10
F1.0
sg11
I0
ssS'7812'
p103
(dp104
g9
F77.777777777777786
sg10
F9.0
sg11
F7.0
ssS'38044'
p105
(dp106
g9
F50.0
sg10
F2.0
sg11
F1.0
ssS'749676'
p107
(dp108
g9
F100.0
sg10
F1.0
sg11
F1.0
ssS'79653'
p109
(dp110
g9
F0.0
sg10
F1.0
sg11
I0
ssS'749651'
p111
(dp112
g9
F100.0
sg10
F1.0
sg11
F1.0
ssS'749653'
p113
(dp114
g9
F0.0
sg10
F3.0
sg11
I0
ssS'749656'
p115
(dp116
g9
F100.0
sg10
F5.0
sg11
F5.0
ssg12
(dp117
g9
F73.643410852713174
sg10
F129.0
sg11
F95.0
ssg91
(dp118
g9
F100.0
sg10
F3.0
sg11
F3.0
ssS'749638'
p119
(dp120
g9
F100.0
sg10
F1.0
sg11
F1.0
ssS'7925301'
p121
(dp122
g9
F100.0
sg10
F1.0
sg11
F1.0
ssg39
(dp123
g9
F80.0
sg10
F25.0
sg11
F20.0
ssS'49'
p124
(dp125
g9
F100.0
sg10
F2.0
sg11
F2.0
ssS'7493'
p126
(dp127
g9
F100.0
sg10
F2.0
sg11
F2.0
ssg61
(dp128
g9
F58.333333333333336
sg10
F24.0
sg11
F14.0
ssS'791976'
p129
(dp130
g9
F100.0
sg10
F1.0
sg11
F1.0
ssg7
(dp131
g9
F72.815533980582529
sg10
F206.0
sg11
F150.0
ssS'74964'
p132
(dp133
g9
F100.0
sg10
F4.0
sg11
F4.0
ssS'380'
p134
(dp135
g9
F50.0
sg10
F4.0
sg11
F2.0
ssS'749644'
p136
(dp137
g9
F100.0
sg10
F2.0
sg11
F2.0
ssS'79152'
p138
(dp139
g9
F100.0
sg10
F1.0
sg11
F1.0
ssg71
(dp140
g9
F100.0
sg10
F1.0
sg11
F1.0
ssS'790963'
p141
(dp142
g9
F0.0
sg10
F1.0
sg11
I0
ssS'749627'
p143
(dp144
g9
F100.0
sg10
F1.0
sg11
F1.0
ssS'74932'
p145
(dp146
g9
F100.0
sg10
F2.0
sg11
F2.0
ssg87
(dp147
g9
F66.666666666666657
sg10
F3.0
sg11
F2.0
ssS'373'
p148
(dp149
g9
F0.0
sg10
F1.0
sg11
I0
ssg89
(dp150
g9
F100.0
sg10
F1.0
sg11
F1.0
sssg14
S'121'
p151
sg15
F439.0
ssS'122'
p152
(dp153
g3
F16.0
sg4
F100.0
sg5
(dp154
g39
(dp155
g9
F100.0
sg10
F8.0
sg11
F8.0
ssg7
(dp156
g9
F100.0
sg10
F8.0
sg11
F8.0
sssg14
g152
sg15
F16.0
ssS'124'
p157
(dp158
g3
F10.0
sg4
F100.0
sg5
(dp159
g7
(dp160
g9
F100.0
sg10
F5.0
sg11
F5.0
ssg12
(dp161
g9
F100.0
sg10
F5.0
sg11
F5.0
sssg14
g157
sg15
F10.0
ssS'125'
p162
(dp163
g3
F2.0
sg4
F100.0
sg5
(dp164
g7
(dp165
g9
F100.0
sg10
F1.0
sg11
F1.0
ssg12
(dp166
g9
F100.0
sg10
F1.0
sg11
F1.0
sssg14
g162
sg15
F2.0
ssS'126'
p167
(dp168
g3
F2.0
sg4
F100.0
sg5
(dp169
g7
(dp170
g9
F100.0
sg10
F1.0
sg11
F1.0
ssg12
(dp171
g9
F100.0
sg10
F1.0
sg11
F1.0
sssg14
g167
sg15
F2.0
ssS'127'
p172
(dp173
g3
F12.0
sg4
F42.857142857142854
sg5
(dp174
g7
(dp175
g9
F42.857142857142854
sg10
F14.0
sg11
F6.0
ssg12
(dp176
g9
F42.857142857142854
sg10
F14.0
sg11
F6.0
sssg14
g172
sg15
F28.0
ssS'59'
p177
(dp178
g3
F4.0
sg4
F100.0
sg5
(dp179
g7
(dp180
g9
F100.0
sg10
F2.0
sg11
F2.0
ssg12
(dp181
g9
F100.0
sg10
F2.0
sg11
F2.0
sssg14
g177
sg15
F4.0
ssS'55'
p182
(dp183
g3
F158.0
sg4
F96.341463414634148
sg5
(dp184
g7
(dp185
g9
F96.341463414634148
sg10
F82.0
sg11
F79.0
ssg12
(dp186
g9
F96.341463414634148
sg10
F82.0
sg11
F79.0
sssg14
g182
sg15
F164.0
ssS'54'
p187
(dp188
g3
F22.0
sg4
F91.666666666666657
sg5
(dp189
g7
(dp190
g9
F91.666666666666657
sg10
F12.0
sg11
F11.0
ssg12
(dp191
g9
F91.666666666666657
sg10
F12.0
sg11
F11.0
sssg14
g187
sg15
F24.0
ssS'56'
p192
(dp193
g3
F56.0
sg4
F87.5
sg5
(dp194
g7
(dp195
g9
F87.5
sg10
F32.0
sg11
F28.0
ssg12
(dp196
g9
F87.5
sg10
F32.0
sg11
F28.0
sssg14
g192
sg15
F64.0
ssS'52'
p197
(dp198
g3
F2.0
sg4
F100.0
sg5
(dp199
g7
(dp200
g9
F100.0
sg10
F1.0
sg11
F1.0
ssg12
(dp201
g9
F100.0
sg10
F1.0
sg11
F1.0
sssg14
g197
sg15
F2.0
ssS'114'
p202
(dp203
g3
F6.0
sg4
F100.0
sg5
(dp204
g7
(dp205
g9
F100.0
sg10
F3.0
sg11
F3.0
ssg12
(dp206
g9
F100.0
sg10
F3.0
sg11
F3.0
sssg14
g202
sg15
F6.0
ssS'117'
p207
(dp208
g3
F1957.0
sg4
F71.267297887836861
sg5
(dp209
S'7817'
p210
(dp211
g9
F100.0
sg10
F1.0
sg11
F1.0
ssS'7815'
p212
(dp213
g9
F100.0
sg10
F2.0
sg11
F2.0
ssS'78722'
p214
(dp215
g9
F0.0
sg10
F1.0
sg11
I0
ssg67
(dp216
g9
F100.0
sg10
F2.0
sg11
F2.0
ssS'7382'
p217
(dp218
g9
F100.0
sg10
F1.0
sg11
F1.0
ssS'7383'
p219
(dp220
g9
F66.666666666666657
sg10
F3.0
sg11
F2.0
ssS'7384'
p221
(dp222
g9
F100.0
sg10
F1.0
sg11
F1.0
ssS'7385'
p223
(dp224
g9
F100.0
sg10
F1.0
sg11
F1.0
ssS'78312'
p225
(dp226
g9
F50.0
sg10
F2.0
sg11
F1.0
ssS'791972'
p227
(dp228
g9
F0.0
sg10
F1.0
sg11
I0
ssS'790367'
p229
(dp230
g9
F0.0
sg10
F1.0
sg11
I0
ssS'78634'
p231
(dp232
g9
F100.0
sg10
F1.0
sg11
F1.0
ssS'78412'
p233
(dp234
g9
F75.0
sg10
F4.0
sg11
F3.0
ssS'74712'
p235
(dp236
g9
F100.0
sg10
F1.0
sg11
F1.0
ssS'74832'
p237
(dp238
g9
F100.0
sg10
F2.0
sg11
F2.0
ssS'996'
p239
(dp240
g9
F0.0
sg10
F1.0
sg11
I0
ssS'7391'
p241
(dp242
g9
F0.0
sg10
F2.0
sg11
I0
ssS'792535'
p243
(dp244
g9
F100.0
sg10
F1.0
sg11
F1.0
ssS'78632'
p245
(dp246
g9
F75.0
sg10
F4.0
sg11
F3.0
ssS'73472'
p247
(dp248
g9
F100.0
sg10
F1.0
sg11
F1.0
ssg83
(dp249
g9
F100.0
sg10
F1.0
sg11
F1.0
ssS'749624'
p250
(dp251
g9
F0.0
sg10
F1.0
sg11
I0
ssg71
(dp252
g9
F100.0
sg10
F2.0
sg11
F2.0
ssS'79037'
p253
(dp254
g9
F100.0
sg10
F1.0
sg11
F1.0
ssS'786167'
p255
(dp256
g9
F100.0
sg10
F1.0
sg11
F1.0
ssS'371'
p257
(dp258
g9
F100.0
sg10
F1.0
sg11
F1.0
ssS'7925514'
p259
(dp260
g9
F0.0
sg10
F1.0
sg11
I0
ssS'74822'
p261
(dp262
g9
F50.0
sg10
F2.0
sg11
F1.0
ssS'7910002'
p263
(dp264
g9
F0.0
sg10
F2.0
sg11
I0
ssS'79295'
p265
(dp266
g9
F100.0
sg10
F2.0
sg11
F2.0
ssS'79296'
p267
(dp268
g9
F40.0
sg10
F5.0
sg11
F2.0
ssS'7872'
p269
(dp270
g9
F0.0
sg10
F1.0
sg11
I0
ssS'79299'
p271
(dp272
g9
F85.714285714285708
sg10
F7.0
sg11
F6.0
ssS'78332'
p273
(dp274
g9
F0.0
sg10
F1.0
sg11
I0
ssS'74922'
p275
(dp276
g9
F100.0
sg10
F2.0
sg11
F2.0
ssg7
(dp277
g9
F70.731707317073173
sg10
F1394.0
sg11
F986.0
ssS'78432'
p278
(dp279
g9
F100.0
sg10
F2.0
sg11
F2.0
ssS'78612'
p280
(dp281
g9
F66.666666666666657
sg10
F3.0
sg11
F2.0
ssS'74732'
p282
(dp283
g9
F22.222222222222221
sg10
F9.0
sg11
F2.0
ssg134
(dp284
g9
F66.666666666666657
sg10
F12.0
sg11
F8.0
ssS'7866'
p285
(dp286
g9
F0.0
sg10
F1.0
sg11
I0
ssg39
(dp287
g9
F58.219178082191782
sg10
F146.0
sg11
F85.0
ssS'7863'
p288
(dp289
g9
F87.5
sg10
F8.0
sg11
F7.0
ssS'7862'
p290
(dp291
g9
F100.0
sg10
F1.0
sg11
F1.0
ssS'7861'
p292
(dp293
g9
F80.0
sg10
F5.0
sg11
F4.0
ssS'7925506'
p294
(dp295
g9
F50.0
sg10
F2.0
sg11
F1.0
ssS'33'
p296
(dp297
g9
F66.666666666666657
sg10
F3.0
sg11
F2.0
ssS'7424'
p298
(dp299
g9
F0.0
sg10
F1.0
sg11
I0
ssS'73912'
p300
(dp301
g9
F0.0
sg10
F2.0
sg11
I0
ssS'73843'
p302
(dp303
g9
F100.0
sg10
F1.0
sg11
F1.0
ssS'73422'
p304
(dp305
g9
F100.0
sg10
F3.0
sg11
F3.0
ssS'74842'
p306
(dp307
g9
F100.0
sg10
F2.0
sg11
F2.0
ssg61
(dp308
g9
F50.0
sg10
F2.0
sg11
F1.0
ssg76
(dp309
g9
F100.0
sg10
F2.0
sg11
F2.0
ssS'7347'
p310
(dp311
g9
F100.0
sg10
F3.0
sg11
F3.0
ssS'7345'
p312
(dp313
g9
F100.0
sg10
F1.0
sg11
F1.0
ssS'7342'
p314
(dp315
g9
F100.0
sg10
F3.0
sg11
F3.0
ssS'7343'
p316
(dp317
g9
F50.0
sg10
F6.0
sg11
F3.0
ssS'7855'
p318
(dp319
g9
F100.0
sg10
F1.0
sg11
F1.0
ssS'783145'
p320
(dp321
g9
F0.0
sg10
F1.0
sg11
I0
ssS'783143'
p322
(dp323
g9
F100.0
sg10
F2.0
sg11
F2.0
ssg91
(dp324
g9
F68.269230769230774
sg10
F104.0
sg11
F71.0
ssS'7349'
p325
(dp326
g9
F100.0
sg10
F1.0
sg11
F1.0
ssS'7498'
p327
(dp328
g9
F44.444444444444443
sg10
F9.0
sg11
F4.0
ssS'78452'
p329
(dp330
g9
F100.0
sg10
F1.0
sg11
F1.0
ssS'73852'
p331
(dp332
g9
F100.0
sg10
F1.0
sg11
F1.0
ssS'7492'
p333
(dp334
g9
F83.333333333333343
sg10
F6.0
sg11
F5.0
ssS'7491'
p335
(dp336
g9
F100.0
sg10
F1.0
sg11
F1.0
ssS'79104'
p337
(dp338
g9
F75.0
sg10
F12.0
sg11
F9.0
ssg12
(dp339
g9
F79.933110367892979
sg10
F598.0
sg11
F478.0
ssS'73452'
p340
(dp341
g9
F100.0
sg10
F1.0
sg11
F1.0
ssS'7411'
p342
(dp343
g9
F0.0
sg10
F4.0
sg11
I0
ssg80
(dp344
g9
F60.0
sg10
F20.0
sg11
F12.0
ssS'78352'
p345
(dp346
g9
F100.0
sg10
F2.0
sg11
F2.0
ssg56
(dp347
g9
F73.75886524822694
sg10
F141.0
sg11
F104.0
ssS'73432'
p348
(dp349
g9
F0.0
sg10
F2.0
sg11
I0
ssS'73433'
p350
(dp351
g9
F100.0
sg10
F2.0
sg11
F2.0
ssS'7351'
p352
(dp353
g9
F100.0
sg10
F1.0
sg11
F1.0
ssS'7484'
p354
(dp355
g9
F100.0
sg10
F2.0
sg11
F2.0
ssS'74112'
p356
(dp357
g9
F0.0
sg10
F2.0
sg11
I0
ssS'7486'
p358
(dp359
g9
F33.333333333333329
sg10
F3.0
sg11
F1.0
ssS'7848'
p360
(dp361
g9
F0.0
sg10
F2.0
sg11
I0
ssS'7483'
p362
(dp363
g9
F100.0
sg10
F2.0
sg11
F2.0
ssS'7482'
p364
(dp365
g9
F33.333333333333329
sg10
F3.0
sg11
F1.0
ssS'7845'
p366
(dp367
g9
F100.0
sg10
F1.0
sg11
F1.0
ssS'7844'
p368
(dp369
g9
F100.0
sg10
F2.0
sg11
F2.0
ssS'7846'
p370
(dp371
g9
F0.0
sg10
F1.0
sg11
I0
ssS'7841'
p372
(dp373
g9
F75.0
sg10
F4.0
sg11
F3.0
ssS'7843'
p374
(dp375
g9
F100.0
sg10
F2.0
sg11
F2.0
ssS'7842'
p376
(dp377
g9
F100.0
sg10
F1.0
sg11
F1.0
ssS'78442'
p378
(dp379
g9
F100.0
sg10
F2.0
sg11
F2.0
ssS'73822'
p380
(dp381
g9
F100.0
sg10
F1.0
sg11
F1.0
ssS'78422'
p382
(dp383
g9
F100.0
sg10
F1.0
sg11
F1.0
ssS'74242'
p384
(dp385
g9
F0.0
sg10
F1.0
sg11
I0
ssg85
(dp386
g9
F0.0
sg10
F2.0
sg11
I0
ssS'74912'
p387
(dp388
g9
F100.0
sg10
F1.0
sg11
F1.0
ssS'784862'
p389
(dp390
g9
F0.0
sg10
F2.0
sg11
I0
ssS'7395'
p391
(dp392
g9
F100.0
sg10
F1.0
sg11
F1.0
ssS'7800'
p393
(dp394
g9
F100.0
sg10
F7.0
sg11
F7.0
ssg78
(dp395
g9
F50.0
sg10
F12.0
sg11
F6.0
ssS'7831'
p396
(dp397
g9
F71.428571428571431
sg10
F7.0
sg11
F5.0
ssS'7833'
p398
(dp399
g9
F0.0
sg10
F1.0
sg11
I0
ssS'7835'
p400
(dp401
g9
F100.0
sg10
F2.0
sg11
F2.0
ssS'79250'
p402
(dp403
g9
F0.0
sg10
F1.0
sg11
I0
ssS'73833'
p404
(dp405
g9
F50.0
sg10
F2.0
sg11
F1.0
ssS'48'
p406
(dp407
g9
F100.0
sg10
F2.0
sg11
F2.0
ssg124
(dp408
g9
F50.0
sg10
F6.0
sg11
F3.0
ssS'79258'
p409
(dp410
g9
F66.666666666666657
sg10
F3.0
sg11
F2.0
ssg65
(dp411
g9
F100.0
sg10
F6.0
sg11
F6.0
ssS'792533'
p412
(dp413
g9
F100.0
sg10
F1.0
sg11
F1.0
ssS'43'
p414
(dp415
g9
F100.0
sg10
F1.0
sg11
F1.0
ssS'791910'
p416
(dp417
g9
F100.0
sg10
F1.0
sg11
F1.0
ssS'1'
p418
(dp419
g9
F63.636363636363633
sg10
F11.0
sg11
F7.0
ssS'7471'
p420
(dp421
g9
F100.0
sg10
F1.0
sg11
F1.0
ssS'7473'
p422
(dp423
g9
F30.0
sg10
F10.0
sg11
F3.0
ssS'7925312'
p424
(dp425
g9
F100.0
sg10
F1.0
sg11
F1.0
ssS'7475'
p426
(dp427
g9
F100.0
sg10
F1.0
sg11
F1.0
ssS'73832'
p428
(dp429
g9
F100.0
sg10
F1.0
sg11
F1.0
ssS'792518'
p430
(dp431
g9
F0.0
sg10
F1.0
sg11
I0
ssS'792519'
p432
(dp433
g9
F100.0
sg10
F1.0
sg11
F1.0
ssg138
(dp434
g9
F57.142857142857139
sg10
F7.0
sg11
F4.0
ssS'792514'
p435
(dp436
g9
F0.0
sg10
F1.0
sg11
I0
ssS'73952'
p437
(dp438
g9
F100.0
sg10
F1.0
sg11
F1.0
ssS'78152'
p439
(dp440
g9
F100.0
sg10
F2.0
sg11
F2.0
ssS'79150'
p441
(dp442
g9
F100.0
sg10
F4.0
sg11
F4.0
ssS'78462'
p443
(dp444
g9
F0.0
sg10
F1.0
sg11
I0
ssS'7353'
p445
(dp446
g9
F100.0
sg10
F1.0
sg11
F1.0
ssS'7925245'
p447
(dp448
g9
F100.0
sg10
F1.0
sg11
F1.0
ssS'74862'
p449
(dp450
g9
F33.333333333333329
sg10
F3.0
sg11
F1.0
ssS'79153'
p451
(dp452
g9
F50.0
sg10
F6.0
sg11
F3.0
ssS'786343'
p453
(dp454
g9
F100.0
sg10
F1.0
sg11
F1.0
ssS'79151'
p455
(dp456
g9
F66.666666666666657
sg10
F3.0
sg11
F2.0
ssg93
(dp457
g9
F66.666666666666657
sg10
F3.0
sg11
F2.0
ssS'79154'
p458
(dp459
g9
F41.666666666666671
sg10
F12.0
sg11
F5.0
sssg14
S'\xd0\x91\xd0\xb8\xd0\xbb\xd0\xb0\xd0\xb9\xd0\xbd (\xd0\x92\xd1\x8b\xd0\xbc\xd0\xbf\xd0\xb5\xd0\xbb\xd0\x9a\xd0\xbe\xd0\xbc) \xd0\xb4\xd0\xbe\xd0\xb3.JF053'
p460
sg15
F2746.0
ssS'116'
p461
(dp462
g3
F22.0
sg4
F55.000000000000007
sg5
(dp463
g7
(dp464
g9
F55.000000000000007
sg10
F20.0
sg11
F11.0
ssg12
(dp465
g9
F55.000000000000007
sg10
F20.0
sg11
F11.0
sssg14
g461
sg15
F40.0
ssS'111'
p466
(dp467
g3
F8.0
sg4
F100.0
sg5
(dp468
g39
(dp469
g9
F100.0
sg10
F4.0
sg11
F4.0
ssg7
(dp470
g9
F100.0
sg10
F4.0
sg11
F4.0
sssg14
g466
sg15
F8.0
ssS'113'
p471
(dp472
g3
F4.0
sg4
F100.0
sg5
(dp473
g7
(dp474
g9
F100.0
sg10
F2.0
sg11
F2.0
ssg12
(dp475
g9
F100.0
sg10
F2.0
sg11
F2.0
sssg14
g471
sg15
F4.0
ssS'83'
p476
(dp477
g3
F28.0
sg4
F70.0
sg5
(dp478
g39
(dp479
g9
F75.0
sg10
F4.0
sg11
F3.0
ssg7
(dp480
g9
F70.0
sg10
F20.0
sg11
F14.0
ssg12
(dp481
g9
F68.75
sg10
F16.0
sg11
F11.0
sssg14
g476
sg15
F40.0
ssS'119'
p482
(dp483
g3
F4.0
sg4
F100.0
sg5
(dp484
g7
(dp485
g9
F100.0
sg10
F2.0
sg11
F2.0
ssg12
(dp486
g9
F100.0
sg10
F2.0
sg11
F2.0
sssg14
g482
sg15
F4.0
ssS'118'
p487
(dp488
g3
F2.0
sg4
F100.0
sg5
(dp489
g7
(dp490
g9
F100.0
sg10
F1.0
sg11
F1.0
ssg12
(dp491
g9
F100.0
sg10
F1.0
sg11
F1.0
sssg14
g487
sg15
F2.0
ssS'85'
p492
(dp493
g3
F4.0
sg4
F66.666666666666657
sg5
(dp494
g7
(dp495
g9
F66.666666666666657
sg10
F3.0
sg11
F2.0
ssg12
(dp496
g9
F66.666666666666657
sg10
F3.0
sg11
F2.0
sssg14
S'\xd0\x9f\xd0\xbe\xd0\xbb\xd0\xb5\xd1\x82-\xd0\xa1\xd0\xb2\xd1\x8f\xd0\xb7\xd1\x8c Definity'
p497
sg15
F6.0
ssS'102'
p498
(dp499
g3
F16.0
sg4
F88.888888888888886
sg5
(dp500
g39
(dp501
g9
F88.888888888888886
sg10
F9.0
sg11
F8.0
ssg7
(dp502
g9
F88.888888888888886
sg10
F9.0
sg11
F8.0
sssg14
S'\xd0\x9a\xd0\xbe\xd0\xbc\xd1\x81\xd1\x82\xd0\xb0\xd1\x80 (\xd0\x9c\xd0\xa2\xd0\xa1) \xd0\xbc\xd0\xb5\xd1\x81\xd1\x82\xd0\xbd\xd1\x8b\xd0\xb9'
p503
sg15
F18.0
ssS'100'
p504
(dp505
g3
F16.0
sg4
F100.0
sg5
(dp506
g7
(dp507
g9
F100.0
sg10
F8.0
sg11
F8.0
ssg12
(dp508
g9
F100.0
sg10
F8.0
sg11
F8.0
sssg14
g504
sg15
F16.0
ssS'105'
p509
(dp510
g3
F4.0
sg4
F100.0
sg5
(dp511
g7
(dp512
g9
F100.0
sg10
F2.0
sg11
F2.0
ssg12
(dp513
g9
F100.0
sg10
F2.0
sg11
F2.0
sssg14
g509
sg15
F4.0
ssS'39'
p514
(dp515
g3
F4.0
sg4
F100.0
sg5
(dp516
g7
(dp517
g9
F100.0
sg10
F2.0
sg11
F2.0
ssg12
(dp518
g9
F100.0
sg10
F2.0
sg11
F2.0
sssg14
g514
sg15
F4.0
ssS'33'
p519
(dp520
g3
F34.0
sg4
F79.069767441860463
sg5
(dp521
g7
(dp522
g9
F77.272727272727266
sg10
F22.0
sg11
F17.0
ssg12
(dp523
g9
F80.952380952380949
sg10
F21.0
sg11
F17.0
sssg14
g519
sg15
F43.0
ssS'30'
p524
(dp525
g3
F2.0
sg4
F100.0
sg5
(dp526
g7
(dp527
g9
F100.0
sg10
F1.0
sg11
F1.0
ssg12
(dp528
g9
F100.0
sg10
F1.0
sg11
F1.0
sssg14
g524
sg15
F2.0
ssS'37'
p529
(dp530
g3
F82.0
sg4
F89.130434782608688
sg5
(dp531
g39
(dp532
g9
F100.0
sg10
F2.0
sg11
F2.0
ssg7
(dp533
g9
F89.130434782608688
sg10
F46.0
sg11
F41.0
ssg12
(dp534
g9
F88.63636363636364
sg10
F44.0
sg11
F39.0
sssg14
g529
sg15
F92.0
ssS'35'
p535
(dp536
g3
F24.0
sg4
F70.588235294117652
sg5
(dp537
g7
(dp538
g9
F70.588235294117652
sg10
F17.0
sg11
F12.0
ssg12
(dp539
g9
F70.588235294117652
sg10
F17.0
sg11
F12.0
sssg14
g535
sg15
F34.0
ssS'60'
p540
(dp541
g3
F2.0
sg4
F100.0
sg5
(dp542
g7
(dp543
g9
F100.0
sg10
F1.0
sg11
F1.0
ssg12
(dp544
g9
F100.0
sg10
F1.0
sg11
F1.0
sssg14
g540
sg15
F2.0
ssS'61'
p545
(dp546
g3
F2.0
sg4
F100.0
sg5
(dp547
g7
(dp548
g9
F100.0
sg10
F1.0
sg11
F1.0
ssg12
(dp549
g9
F100.0
sg10
F1.0
sg11
F1.0
sssg14
g545
sg15
F2.0
ssS'64'
p550
(dp551
g3
F16.0
sg4
F100.0
sg5
(dp552
g39
(dp553
g9
F100.0
sg10
F3.0
sg11
F3.0
ssg7
(dp554
g9
F100.0
sg10
F8.0
sg11
F8.0
ssg12
(dp555
g9
F100.0
sg10
F5.0
sg11
F5.0
sssg14
S'\xd0\x9c\xd0\x93\xd0\xa2\xd0\xa1 707  \xd0\x92\xd1\x81\xd0\xb5\xd0\xb2\xd0\xbe\xd0\xbb\xd0\xb6\xd1\x81\xd0\xba\xd0\xb8\xd0\xb9 \xd1\x83\xd0\xb7\xd0\xb5\xd0\xbb'
p556
sg15
F16.0
ssS'69'
p557
(dp558
g3
F24.0
sg4
F100.0
sg5
(dp559
g7
(dp560
g9
F100.0
sg10
F12.0
sg11
F12.0
ssg12
(dp561
g9
F100.0
sg10
F12.0
sg11
F12.0
sssg14
g557
sg15
F24.0
ssS'174'
p562
(dp563
g3
F1098.0
sg4
F54.954954954954957
sg5
(dp564
S'7925507'
p565
(dp566
g9
F100.0
sg10
F1.0
sg11
F1.0
ssg91
(dp567
g9
F74.509803921568633
sg10
F51.0
sg11
F38.0
ssg101
(dp568
g9
F77.777777777777786
sg10
F9.0
sg11
F7.0
ssg103
(dp569
g9
F0.0
sg10
F1.0
sg11
I0
ssS'79670'
p570
(dp571
g9
F66.666666666666657
sg10
F3.0
sg11
F2.0
ssS'79671'
p572
(dp573
g9
F100.0
sg10
F2.0
sg11
F2.0
ssg435
(dp574
g9
F100.0
sg10
F1.0
sg11
F1.0
ssg337
(dp575
g9
F85.714285714285708
sg10
F7.0
sg11
F6.0
ssg69
(dp576
g9
F85.714285714285708
sg10
F7.0
sg11
F6.0
ssS'74722'
p577
(dp578
g9
F0.0
sg10
F2.0
sg11
I0
ssS'79652'
p579
(dp580
g9
F66.666666666666657
sg10
F6.0
sg11
F4.0
ssg109
(dp581
g9
F75.0
sg10
F8.0
sg11
F6.0
ssg263
(dp582
g9
F50.0
sg10
F2.0
sg11
F1.0
ssg265
(dp583
g9
F100.0
sg10
F1.0
sg11
F1.0
ssg267
(dp584
g9
F50.0
sg10
F2.0
sg11
F1.0
ssS'79629'
p585
(dp586
g9
F71.428571428571431
sg10
F7.0
sg11
F5.0
ssS'790915'
p587
(dp588
g9
F100.0
sg10
F1.0
sg11
F1.0
ssS'790916'
p589
(dp590
g9
F0.0
sg10
F1.0
sg11
I0
ssS'790962'
p591
(dp592
g9
F100.0
sg10
F2.0
sg11
F2.0
ssS'790396'
p593
(dp594
g9
F100.0
sg10
F3.0
sg11
F3.0
ssS'790397'
p595
(dp596
g9
F100.0
sg10
F1.0
sg11
F1.0
ssg402
(dp597
g9
F66.666666666666657
sg10
F3.0
sg11
F2.0
ssg327
(dp598
g9
F0.0
sg10
F3.0
sg11
I0
ssg39
(dp599
g9
F59.322033898305079
sg10
F59.0
sg11
F35.0
ssS'796378'
p600
(dp601
g9
F0.0
sg10
F1.0
sg11
I0
ssS'790300'
p602
(dp603
g9
F100.0
sg10
F2.0
sg11
F2.0
ssg409
(dp604
g9
F0.0
sg10
F1.0
sg11
I0
ssS'79686'
p605
(dp606
g9
F100.0
sg10
F2.0
sg11
F2.0
ssS'796372'
p607
(dp608
g9
F100.0
sg10
F1.0
sg11
F1.0
ssS'796236'
p609
(dp610
g9
F100.0
sg10
F1.0
sg11
F1.0
ssg229
(dp611
g9
F100.0
sg10
F2.0
sg11
F2.0
ssS'790366'
p612
(dp613
g9
F100.0
sg10
F2.0
sg11
F2.0
ssS'796477'
p614
(dp615
g9
F100.0
sg10
F1.0
sg11
F1.0
ssg441
(dp616
g9
F100.0
sg10
F1.0
sg11
F1.0
ssS'790362'
p617
(dp618
g9
F100.0
sg10
F3.0
sg11
F3.0
ssS'790361'
p619
(dp620
g9
F75.0
sg10
F4.0
sg11
F3.0
ssg7
(dp621
g9
F55.465587044534416
sg10
F988.0
sg11
F548.0
ssS'7472'
p622
(dp623
g9
F0.0
sg10
F2.0
sg11
I0
ssg59
(dp624
g9
F78.571428571428569
sg10
F14.0
sg11
F11.0
ssS'796479'
p625
(dp626
g9
F100.0
sg10
F1.0
sg11
F1.0
ssS'796452'
p627
(dp628
g9
F100.0
sg10
F2.0
sg11
F2.0
ssS'796451'
p629
(dp630
g9
F100.0
sg10
F1.0
sg11
F1.0
ssS'790368'
p631
(dp632
g9
F100.0
sg10
F1.0
sg11
F1.0
ssg56
(dp633
g9
F77.777777777777786
sg10
F45.0
sg11
F35.0
ssS'792537'
p634
(dp635
g9
F100.0
sg10
F1.0
sg11
F1.0
ssS'796541'
p636
(dp637
g9
F100.0
sg10
F1.0
sg11
F1.0
ssS'796459'
p638
(dp639
g9
F100.0
sg10
F2.0
sg11
F2.0
ssg282
(dp640
g9
F0.0
sg10
F7.0
sg11
I0
ssS'79651'
p641
(dp642
g9
F88.888888888888886
sg10
F9.0
sg11
F8.0
ssS'796527'
p643
(dp644
g9
F0.0
sg10
F1.0
sg11
I0
ssg451
(dp645
g9
F100.0
sg10
F1.0
sg11
F1.0
ssS'796543'
p646
(dp647
g9
F0.0
sg10
F3.0
sg11
I0
ssS'796524'
p648
(dp649
g9
F100.0
sg10
F2.0
sg11
F2.0
ssS'796523'
p650
(dp651
g9
F100.0
sg10
F1.0
sg11
F1.0
ssg80
(dp652
g9
F62.5
sg10
F16.0
sg11
F10.0
ssS'796521'
p653
(dp654
g9
F100.0
sg10
F1.0
sg11
F1.0
ssg138
(dp655
g9
F100.0
sg10
F2.0
sg11
F2.0
ssS'792511'
p656
(dp657
g9
F100.0
sg10
F1.0
sg11
F1.0
ssg73
(dp658
g9
F100.0
sg10
F1.0
sg11
F1.0
ssS'796529'
p659
(dp660
g9
F0.0
sg10
F1.0
sg11
I0
ssg12
(dp661
g9
F41.807909604519772
sg10
F531.0
sg11
F222.0
ssg422
(dp662
g9
F0.0
sg10
F7.0
sg11
I0
ssS'790969'
p663
(dp664
g9
F62.5
sg10
F8.0
sg11
F5.0
ssS'790968'
p665
(dp666
g9
F0.0
sg10
F1.0
sg11
I0
ssS'79015'
p667
(dp668
g9
F0.0
sg10
F1.0
sg11
I0
ssg296
(dp669
g9
F25.0
sg10
F12.0
sg11
F3.0
ssg63
(dp670
g9
F86.666666666666671
sg10
F15.0
sg11
F13.0
ssS'79032'
p671
(dp672
g9
F60.0
sg10
F20.0
sg11
F12.0
ssS'79257'
p673
(dp674
g9
F0.0
sg10
F1.0
sg11
I0
ssg71
(dp675
g9
F84.0
sg10
F25.0
sg11
F21.0
ssg253
(dp676
g9
F66.666666666666657
sg10
F24.0
sg11
F16.0
ssS'796463'
p677
(dp678
g9
F100.0
sg10
F1.0
sg11
F1.0
ssS'79067'
p679
(dp680
g9
F75.0
sg10
F12.0
sg11
F9.0
ssg78
(dp681
g9
F100.0
sg10
F1.0
sg11
F1.0
ssg87
(dp682
g9
F85.714285714285708
sg10
F14.0
sg11
F12.0
ssg455
(dp683
g9
F100.0
sg10
F1.0
sg11
F1.0
ssg89
(dp684
g9
F53.846153846153847
sg10
F13.0
sg11
F7.0
ssS'790967'
p685
(dp686
g9
F100.0
sg10
F1.0
sg11
F1.0
ssg458
(dp687
g9
F50.0
sg10
F2.0
sg11
F1.0
sssg14
S'174'
p688
sg15
F1998.0
ssS'172'
p689
(dp690
g3
F14.0
sg4
F87.5
sg5
(dp691
g7
(dp692
g9
F87.5
sg10
F8.0
sg11
F7.0
ssg12
(dp693
g9
F87.5
sg10
F8.0
sg11
F7.0
sssg14
g689
sg15
F16.0
ssS'2'
p694
(dp695
g3
F2.0
sg4
F100.0
sg5
(dp696
g7
(dp697
g9
F100.0
sg10
F1.0
sg11
F1.0
ssg12
(dp698
g9
F100.0
sg10
F1.0
sg11
F1.0
sssg14
g694
sg15
F2.0
ssS'6'
p699
(dp700
g3
F31.0
sg4
F31.958762886597935
sg5
(dp701
g7
(dp702
g9
F32.653061224489797
sg10
F49.0
sg11
F16.0
ssg12
(dp703
g9
F31.25
sg10
F48.0
sg11
F15.0
sssg14
g699
sg15
F97.0
ssS'98'
p704
(dp705
g3
F12.0
sg4
F42.857142857142854
sg5
(dp706
g7
(dp707
g9
F42.857142857142854
sg10
F14.0
sg11
F6.0
ssg12
(dp708
g9
F42.857142857142854
sg10
F14.0
sg11
F6.0
sssg14
g704
sg15
F28.0
ssS'169'
p709
(dp710
g3
F10.0
sg4
F62.5
sg5
(dp711
g56
(dp712
g9
F57.142857142857139
sg10
F7.0
sg11
F4.0
ssg634
(dp713
g9
F100.0
sg10
F1.0
sg11
F1.0
ssg7
(dp714
g9
F62.5
sg10
F8.0
sg11
F5.0
sssg14
S'\xd0\xa1\xd0\xb8\xd0\xbd\xd1\x82\xd0\xb5\xd1\x80\xd1\x80\xd0\xb0 (\xd0\xbf\xd0\xbe\xd0\xbb\xd1\x83\xd1\x87\xd0\xb0\xd0\xb5\xd0\xbc \xd0\xbd\xd0\xbe\xd0\xbc\xd0\xb5\xd1\x80\xd0\xb0 789-4250\xe2\x80\xa6 7894699) LINK 5 DPC \xd0\xbf\xd0\xbe\xd0\xb8\xd0\xbd\xd1\x82\xd0\xba\xd0\xbe\xd0\xb4 20 \xd0\xbd\xd0\xb0\xd1\x88 \xd0\x9e\xd0\xa0\xd0\xa1 274'
p715
sg15
F16.0
ssS'91'
p716
(dp717
g3
F32.0
sg4
F100.0
sg5
(dp718
g7
(dp719
g9
F100.0
sg10
F16.0
sg11
F16.0
ssg12
(dp720
g9
F100.0
sg10
F16.0
sg11
F16.0
sssg14
g716
sg15
F32.0
ssS'90'
p721
(dp722
g3
F10.0
sg4
F62.5
sg5
(dp723
g7
(dp724
g9
F62.5
sg10
F8.0
sg11
F5.0
ssg12
(dp725
g9
F62.5
sg10
F8.0
sg11
F5.0
sssg14
g721
sg15
F16.0
ssS'166'
p726
(dp727
g3
F6.0
sg4
F75.0
sg5
(dp728
g7
(dp729
g9
F75.0
sg10
F4.0
sg11
F3.0
ssg12
(dp730
g9
F75.0
sg10
F4.0
sg11
F3.0
sssg14
g726
sg15
F8.0
ssS'167'
p731
(dp732
g3
F3.0
sg4
F75.0
sg5
(dp733
g7
(dp734
g9
F75.0
sg10
F4.0
sg11
F3.0
sssg14
g731
sg15
F4.0
ssS'95'
p735
(dp736
g3
F2.0
sg4
F100.0
sg5
(dp737
g7
(dp738
g9
F100.0
sg10
F1.0
sg11
F1.0
ssg12
(dp739
g9
F100.0
sg10
F1.0
sg11
F1.0
sssg14
g735
sg15
F2.0
ssS'97'
p740
(dp741
g3
F4.0
sg4
F66.666666666666657
sg5
(dp742
g7
(dp743
g9
F66.666666666666657
sg10
F3.0
sg11
F2.0
ssg12
(dp744
g9
F66.666666666666657
sg10
F3.0
sg11
F2.0
sssg14
S'\xd0\x90\xd0\xa1\xd0\x92\xd0\xa2'
p745
sg15
F6.0
ssS'96'
p746
(dp747
g3
F6.0
sg4
F75.0
sg5
(dp748
g7
(dp749
g9
F75.0
sg10
F4.0
sg11
F3.0
ssg12
(dp750
g9
F75.0
sg10
F4.0
sg11
F3.0
sssg14
g746
sg15
F8.0
ssS'10'
p751
(dp752
g3
F10.0
sg4
F71.428571428571431
sg5
(dp753
g39
(dp754
g9
F100.0
sg10
F1.0
sg11
F1.0
ssg7
(dp755
g9
F71.428571428571431
sg10
F7.0
sg11
F5.0
ssg12
(dp756
g9
F66.666666666666657
sg10
F6.0
sg11
F4.0
sssg14
g751
sg15
F14.0
ssS'17'
p757
(dp758
g3
F8.0
sg4
F33.333333333333329
sg5
(dp759
g348
(dp760
g9
F0.0
sg10
F2.0
sg11
I0
ssg350
(dp761
g9
F0.0
sg10
F2.0
sg11
I0
ssg12
(dp762
g9
F60.0
sg10
F5.0
sg11
F3.0
ssg316
(dp763
g9
F0.0
sg10
F4.0
sg11
I0
ssg7
(dp764
g9
F40.0
sg10
F10.0
sg11
F4.0
ssg78
(dp765
g9
F100.0
sg10
F1.0
sg11
F1.0
sssg14
S'\xd0\x91\xd0\xb8\xd0\xbb\xd0\xbb\xd0\xb0\xd0\xb9\xd0\xbd(\xd0\x92\xd1\x8b\xd0\xbc\xd0\xbf\xd0\xb5\xd0\xbb\xd0\xba\xd0\xbe\xd0\xbc)   \xd0\x9d\xd0\x9e0003 - \xd0\xba\xd0\xbb\xd0\xb8\xd0\xb5\xd0\xbd\xd1\x82\xd1\x8b \xd0\xa1\xd0\xbe\xd0\xb2\xd0\xb8\xd0\xbd\xd1\x82\xd0\xb5\xd0\xbb\xd0\xb0 \xd0\xbd\xd0\xb0 \xd0\x90\xd0\xbb\xd0\xba\xd0\xb0\xd1\x82\xd0\xb5\xd0\xbb\xd0\xb5'
p766
sg15
F24.0
ssS'88'
p767
(dp768
g3
F6.0
sg4
F100.0
sg5
(dp769
g7
(dp770
g9
F100.0
sg10
F3.0
sg11
F3.0
ssg12
(dp771
g9
F100.0
sg10
F3.0
sg11
F3.0
sssg14
g767
sg15
F6.0
ssS'150'
p772
(dp773
g3
F40.0
sg4
F100.0
sg5
(dp774
g7
(dp775
g9
F100.0
sg10
F20.0
sg11
F20.0
ssg12
(dp776
g9
F100.0
sg10
F20.0
sg11
F20.0
sssg14
g772
sg15
F40.0
ssS'153'
p777
(dp778
g3
F28.0
sg4
F87.5
sg5
(dp779
g7
(dp780
g9
F87.5
sg10
F16.0
sg11
F14.0
ssg12
(dp781
g9
F87.5
sg10
F16.0
sg11
F14.0
sssg14
S'\xd0\x9d\xd0\x98\xd0\x98\xd0\xa1\xd0\x90'
p782
sg15
F32.0
ssS'155'
p783
(dp784
g3
F15.0
sg4
F65.217391304347828
sg5
(dp785
g671
(dp786
g9
F0.0
sg10
F1.0
sg11
I0
ssg39
(dp787
g9
F100.0
sg10
F2.0
sg11
F2.0
ssg91
(dp788
g9
F100.0
sg10
F1.0
sg11
F1.0
ssg7
(dp789
g9
F57.142857142857139
sg10
F14.0
sg11
F8.0
ssg12
(dp790
g9
F80.0
sg10
F5.0
sg11
F4.0
sssg14
S'A2 M200 link 9 DPC \xd0\xbf\xd0\xbe\xd0\xb8\xd0\xbd\xd1\x82\xd0\xba\xd0\xbe\xd0\xb4 190 \xd0\xbd\xd0\xb0\xd1\x88 OPC 274'
p791
sg15
F23.0
ssS'157'
p792
(dp793
g3
F28.0
sg4
F100.0
sg5
(dp794
g7
(dp795
g9
F100.0
sg10
F14.0
sg11
F14.0
ssg12
(dp796
g9
F100.0
sg10
F14.0
sg11
F14.0
sssg14
g792
sg15
F28.0
ssS'156'
p797
(dp798
g3
F2.0
sg4
F100.0
sg5
(dp799
g7
(dp800
g9
F100.0
sg10
F1.0
sg11
F1.0
ssg12
(dp801
g9
F100.0
sg10
F1.0
sg11
F1.0
sssg14
g797
sg15
F2.0
ssS'159'
p802
(dp803
g3
F8.0
sg4
F80.0
sg5
(dp804
g7
(dp805
g9
F80.0
sg10
F5.0
sg11
F4.0
ssg12
(dp806
g9
F80.0
sg10
F5.0
sg11
F4.0
sssg14
g802
sg15
F10.0
ssS'158'
p807
(dp808
g3
F12.0
sg4
F85.714285714285708
sg5
(dp809
g39
(dp810
g9
F50.0
sg10
F2.0
sg11
F1.0
ssg7
(dp811
g9
F85.714285714285708
sg10
F7.0
sg11
F6.0
ssg12
(dp812
g9
F100.0
sg10
F5.0
sg11
F5.0
sssg14
S'158'
p813
sg15
F14.0
ssS'48'
p814
(dp815
g3
F2.0
sg4
F50.0
sg5
(dp816
g7
(dp817
g9
F50.0
sg10
F2.0
sg11
F1.0
ssg12
(dp818
g9
F50.0
sg10
F2.0
sg11
F1.0
sssg14
g814
sg15
F4.0
ssS'49'
p819
(dp820
g3
F30.0
sg4
F93.75
sg5
(dp821
g7
(dp822
g9
F94.117647058823522
sg10
F17.0
sg11
F16.0
ssg12
(dp823
g9
F93.333333333333329
sg10
F15.0
sg11
F14.0
sssg14
g819
sg15
F32.0
ssS'46'
p824
(dp825
g3
F14.0
sg4
F100.0
sg5
(dp826
g7
(dp827
g9
F100.0
sg10
F7.0
sg11
F7.0
ssg12
(dp828
g9
F100.0
sg10
F7.0
sg11
F7.0
sssg14
g824
sg15
F14.0
ssS'44'
p829
(dp830
g3
F18.0
sg4
F81.818181818181827
sg5
(dp831
g7
(dp832
g9
F81.818181818181827
sg10
F11.0
sg11
F9.0
ssg12
(dp833
g9
F81.818181818181827
sg10
F11.0
sg11
F9.0
sssg14
g829
sg15
F22.0
ssS'45'
p834
(dp835
g3
F88.0
sg4
F88.0
sg5
(dp836
g39
(dp837
g9
F87.5
sg10
F16.0
sg11
F14.0
ssg7
(dp838
g9
F88.0
sg10
F50.0
sg11
F44.0
ssg12
(dp839
g9
F88.235294117647058
sg10
F34.0
sg11
F30.0
sssg14
g834
sg15
F100.0
ssS'42'
p840
(dp841
g3
F6.0
sg4
F100.0
sg5
(dp842
g7
(dp843
g9
F100.0
sg10
F3.0
sg11
F3.0
ssg12
(dp844
g9
F100.0
sg10
F3.0
sg11
F3.0
sssg14
g840
sg15
F6.0
ssS'43'
p845
(dp846
g3
F10.0
sg4
F100.0
sg5
(dp847
g39
(dp848
g9
F100.0
sg10
F3.0
sg11
F3.0
ssg7
(dp849
g9
F100.0
sg10
F5.0
sg11
F5.0
ssg12
(dp850
g9
F100.0
sg10
F2.0
sg11
F2.0
sssg14
S'\xd0\x9d\xd0\xbe\xd0\xb2\xd1\x8b\xd0\xb5 \xd0\xa1\xd0\xb8\xd1\x81\xd1\x82\xd0\xb5\xd0\xbc\xd1\x8b \xd0\xa2\xd0\x9a\xd0\x9a'
p851
sg15
F10.0
ssS'40'
p852
(dp853
g3
F2.0
sg4
F100.0
sg5
(dp854
g7
(dp855
g9
F100.0
sg10
F1.0
sg11
F1.0
ssg12
(dp856
g9
F100.0
sg10
F1.0
sg11
F1.0
sssg14
g852
sg15
F2.0
ssS'41'
p857
(dp858
g3
F12.0
sg4
F75.0
sg5
(dp859
g7
(dp860
g9
F75.0
sg10
F8.0
sg11
F6.0
ssg12
(dp861
g9
F75.0
sg10
F8.0
sg11
F6.0
sssg14
g857
sg15
F16.0
ssS'5'
p862
(dp863
g3
F1.0
sg4
F100.0
sg5
(dp864
g7
(dp865
g9
F100.0
sg10
F1.0
sg11
F1.0
sssg14
g862
sg15
F1.0
ssS'146'
p866
(dp867
g3
F2.0
sg4
F100.0
sg5
(dp868
g7
(dp869
g9
F100.0
sg10
F1.0
sg11
F1.0
ssg12
(dp870
g9
F100.0
sg10
F1.0
sg11
F1.0
sssg14
g866
sg15
F2.0
ssS'147'
p871
(dp872
g3
F60.0
sg4
F90.909090909090907
sg5
(dp873
g39
(dp874
g9
F100.0
sg10
F5.0
sg11
F5.0
ssg7
(dp875
g9
F90.909090909090907
sg10
F33.0
sg11
F30.0
ssg12
(dp876
g9
F89.285714285714292
sg10
F28.0
sg11
F25.0
sssg14
g871
sg15
F66.0
ssS'144'
p877
(dp878
g3
F4.0
sg4
F100.0
sg5
(dp879
g7
(dp880
g9
F100.0
sg10
F2.0
sg11
F2.0
ssg12
(dp881
g9
F100.0
sg10
F2.0
sg11
F2.0
sssg14
g877
sg15
F4.0
ssS'145'
p882
(dp883
g3
F42.0
sg4
F95.454545454545453
sg5
(dp884
g7
(dp885
g9
F95.454545454545453
sg10
F22.0
sg11
F21.0
ssg12
(dp886
g9
F95.454545454545453
sg10
F22.0
sg11
F21.0
sssg14
g882
sg15
F44.0
ssS'143'
p887
(dp888
g3
F4.0
sg4
F100.0
sg5
(dp889
g7
(dp890
g9
F100.0
sg10
F2.0
sg11
F2.0
ssg12
(dp891
g9
F100.0
sg10
F2.0
sg11
F2.0
sssg14
g887
sg15
F4.0
ssS'77'
p892
(dp893
g3
F12.0
sg4
F100.0
sg5
(dp894
g7
(dp895
g9
F100.0
sg10
F6.0
sg11
F6.0
ssg12
(dp896
g9
F100.0
sg10
F6.0
sg11
F6.0
sssg14
g892
sg15
F12.0
ssS'75'
p897
(dp898
g3
F36.0
sg4
F100.0
sg5
(dp899
g7
(dp900
g9
F100.0
sg10
F18.0
sg11
F18.0
ssg12
(dp901
g9
F100.0
sg10
F18.0
sg11
F18.0
sssg14
g897
sg15
F36.0
ssS'73'
p902
(dp903
g3
F2.0
sg4
F100.0
sg5
(dp904
g7
(dp905
g9
F100.0
sg10
F1.0
sg11
F1.0
ssg12
(dp906
g9
F100.0
sg10
F1.0
sg11
F1.0
sssg14
g902
sg15
F2.0
ssS'71'
p907
(dp908
g3
F26.0
sg4
F72.222222222222214
sg5
(dp909
g39
(dp910
g9
F100.0
sg10
F2.0
sg11
F2.0
ssg7
(dp911
g9
F72.222222222222214
sg10
F18.0
sg11
F13.0
ssg12
(dp912
g9
F68.75
sg10
F16.0
sg11
F11.0
sssg14
g907
sg15
F36.0
ssS'70'
p913
(dp914
g3
F28.0
sg4
F93.333333333333329
sg5
(dp915
g39
(dp916
g9
F100.0
sg10
F2.0
sg11
F2.0
ssg7
(dp917
g9
F93.333333333333329
sg10
F15.0
sg11
F14.0
ssg12
(dp918
g9
F92.307692307692307
sg10
F13.0
sg11
F12.0
sssg14
g913
sg15
F30.0
ssS'79'
p919
(dp920
g3
F6.0
sg4
F100.0
sg5
(dp921
g7
(dp922
g9
F100.0
sg10
F3.0
sg11
F3.0
ssg12
(dp923
g9
F100.0
sg10
F3.0
sg11
F3.0
sssg14
g919
sg15
F6.0
ssS'78'
p924
(dp925
g3
F814.0
sg4
F93.135011441647592
sg5
(dp926
g39
(dp927
g9
F90.909090909090907
sg10
F22.0
sg11
F20.0
ssg7
(dp928
g9
F93.135011441647592
sg10
F437.0
sg11
F407.0
ssg12
(dp929
g9
F93.253012048192772
sg10
F415.0
sg11
F387.0
sssg14
g924
sg15
F874.0
ss.