(dp0
S'130'
p1
(dp2
S'suc_calls'
p3
F6.0
sS'asr'
p4
F100.0
sS'codes'
p5
(dp6
S'7499'
p7
(dp8
S'code_asr'
p9
F100.0
sS'code_calls'
p10
F3.0
sS'code_suc_calls'
p11
F3.0
ssS'7'
p12
(dp13
g9
F100.0
sg10
F3.0
sg11
F3.0
sssS'tg_name'
p14
g1
sS'calls'
p15
F6.0
ssS'135'
p16
(dp17
g3
F4.0
sg4
F66.666666666666657
sg5
(dp18
g12
(dp19
g9
F66.666666666666657
sg10
F3.0
sg11
F2.0
ssS'7495'
p20
(dp21
g9
F66.666666666666657
sg10
F3.0
sg11
F2.0
sssg14
g16
sg15
F6.0
ssS'93'
p22
(dp23
g3
F2.0
sg4
F100.0
sg5
(dp24
g12
(dp25
g9
F100.0
sg10
F1.0
sg11
F1.0
ssg20
(dp26
g9
F100.0
sg10
F1.0
sg11
F1.0
sssg14
g22
sg15
F2.0
ssS'24'
p27
(dp28
g3
F2.0
sg4
F100.0
sg5
(dp29
g12
(dp30
g9
F100.0
sg10
F1.0
sg11
F1.0
ssg20
(dp31
g9
F100.0
sg10
F1.0
sg11
F1.0
sssg14
g27
sg15
F2.0
ssS'25'
p32
(dp33
g3
F6.0
sg4
F100.0
sg5
(dp34
g12
(dp35
g9
F100.0
sg10
F3.0
sg11
F3.0
ssg20
(dp36
g9
F100.0
sg10
F3.0
sg11
F3.0
sssg14
g32
sg15
F6.0
ssS'26'
p37
(dp38
g3
F3.0
sg4
F60.0
sg5
(dp39
g12
(dp40
g9
F66.666666666666657
sg10
F3.0
sg11
F2.0
ssg20
(dp41
g9
F50.0
sg10
F2.0
sg11
F1.0
sssg14
g37
sg15
F5.0
ssS'21'
p42
(dp43
g3
F2.0
sg4
F100.0
sg5
(dp44
g12
(dp45
g9
F100.0
sg10
F1.0
sg11
F1.0
ssg20
(dp46
g9
F100.0
sg10
F1.0
sg11
F1.0
sssg14
g42
sg15
F2.0
ssS'22'
p47
(dp48
g3
F36.0
sg4
F81.818181818181827
sg5
(dp49
g12
(dp50
g9
F81.818181818181827
sg10
F22.0
sg11
F18.0
ssg20
(dp51
g9
F81.818181818181827
sg10
F22.0
sg11
F18.0
sssg14
g47
sg15
F44.0
ssS'23'
p52
(dp53
g3
F4.0
sg4
F100.0
sg5
(dp54
g12
(dp55
g9
F100.0
sg10
F2.0
sg11
F2.0
ssg20
(dp56
g9
F100.0
sg10
F2.0
sg11
F2.0
sssg14
g52
sg15
F4.0
ssS'29'
p57
(dp58
g3
F14.0
sg4
F100.0
sg5
(dp59
g12
(dp60
g9
F100.0
sg10
F7.0
sg11
F7.0
ssg20
(dp61
g9
F100.0
sg10
F7.0
sg11
F7.0
sssg14
g57
sg15
F14.0
ssS'4'
p62
(dp63
g3
I0
sg4
F0.0
sg5
(dp64
g7
(dp65
g9
F0.0
sg10
F3.0
sg11
I0
ssg12
(dp66
g9
F0.0
sg10
F3.0
sg11
I0
sssg14
g62
sg15
F6.0
ssS'163'
p67
(dp68
g3
F46.0
sg4
F76.666666666666671
sg5
(dp69
S'7926'
p70
(dp71
g9
F75.0
sg10
F4.0
sg11
F3.0
ssS'1'
p72
(dp73
g9
F100.0
sg10
F1.0
sg11
F1.0
ssg7
(dp74
g9
F100.0
sg10
F1.0
sg11
F1.0
ssS'7812'
p75
(dp76
g9
F0.0
sg10
F1.0
sg11
I0
ssS'79032'
p77
(dp78
g9
F100.0
sg10
F1.0
sg11
F1.0
ssS'79037'
p79
(dp80
g9
F100.0
sg10
F1.0
sg11
F1.0
ssS'790367'
p81
(dp82
g9
F100.0
sg10
F1.0
sg11
F1.0
ssS'792519'
p83
(dp84
g9
F100.0
sg10
F1.0
sg11
F1.0
ssS'796462'
p85
(dp86
g9
F0.0
sg10
F1.0
sg11
I0
ssg12
(dp87
g9
F74.193548387096769
sg10
F31.0
sg11
F23.0
ssg20
(dp88
g9
F92.307692307692307
sg10
F13.0
sg11
F12.0
ssS'7916'
p89
(dp90
g9
F50.0
sg10
F4.0
sg11
F2.0
sssg14
S'163'
p91
sg15
F60.0
ssS'121'
p92
(dp93
g3
F284.0
sg4
F66.04651162790698
sg5
(dp94
S'79099'
p95
(dp96
g9
F0.0
sg10
F1.0
sg11
I0
ssg75
(dp97
g9
F66.666666666666657
sg10
F15.0
sg11
F10.0
ssS'7483'
p98
(dp99
g9
F0.0
sg10
F2.0
sg11
I0
ssS'79671'
p100
(dp101
g9
F100.0
sg10
F1.0
sg11
F1.0
ssS'79653'
p102
(dp103
g9
F100.0
sg10
F1.0
sg11
F1.0
ssS'749635'
p104
(dp105
g9
F0.0
sg10
F1.0
sg11
I0
ssS'749634'
p106
(dp107
g9
F20.0
sg10
F5.0
sg11
F1.0
ssS'749656'
p108
(dp109
g9
F16.666666666666664
sg10
F6.0
sg11
F1.0
ssS'749673'
p110
(dp111
g9
F100.0
sg10
F1.0
sg11
F1.0
ssS'7383'
p112
(dp113
g9
F100.0
sg10
F1.0
sg11
F1.0
ssS'748439'
p114
(dp115
g9
F100.0
sg10
F1.0
sg11
F1.0
ssS'749677'
p116
(dp117
g9
F0.0
sg10
F1.0
sg11
I0
ssg89
(dp118
g9
F100.0
sg10
F1.0
sg11
F1.0
ssS'73832'
p119
(dp120
g9
F100.0
sg10
F1.0
sg11
F1.0
ssg7
(dp121
g9
F100.0
sg10
F9.0
sg11
F9.0
ssS'79688'
p122
(dp123
g9
F0.0
sg10
F1.0
sg11
I0
ssS'7493'
p124
(dp125
g9
F60.0
sg10
F5.0
sg11
F3.0
ssS'7496'
p126
(dp127
g9
F26.923076923076923
sg10
F26.0
sg11
F7.0
ssg20
(dp128
g9
F77.064220183486242
sg10
F109.0
sg11
F84.0
ssg12
(dp129
g9
F67.368421052631575
sg10
F190.0
sg11
F128.0
ssS'79067'
p130
(dp131
g9
F33.333333333333329
sg10
F3.0
sg11
F1.0
ssS'790368'
p132
(dp133
g9
F100.0
sg10
F1.0
sg11
F1.0
ssg70
(dp134
g9
F0.0
sg10
F1.0
sg11
I0
ssS'74832'
p135
(dp136
g9
F0.0
sg10
F2.0
sg11
I0
ssS'78632'
p137
(dp138
g9
F100.0
sg10
F2.0
sg11
F2.0
ssS'74964'
p139
(dp140
g9
F50.0
sg10
F6.0
sg11
F3.0
ssS'380'
p141
(dp142
g9
F60.0
sg10
F5.0
sg11
F3.0
ssS'749643'
p143
(dp144
g9
F50.0
sg10
F4.0
sg11
F2.0
ssS'749641'
p145
(dp146
g9
F50.0
sg10
F2.0
sg11
F1.0
ssS'7863'
p147
(dp148
g9
F100.0
sg10
F2.0
sg11
F2.0
ssS'38044'
p149
(dp150
g9
F66.666666666666657
sg10
F3.0
sg11
F2.0
ssS'787922'
p151
(dp152
g9
F100.0
sg10
F1.0
sg11
F1.0
ssS'7879'
p153
(dp154
g9
F100.0
sg10
F1.0
sg11
F1.0
ssS'7484'
p155
(dp156
g9
F100.0
sg10
F1.0
sg11
F1.0
ssS'49'
p157
(dp158
g9
F100.0
sg10
F2.0
sg11
F2.0
ssS'749627'
p159
(dp160
g9
F50.0
sg10
F2.0
sg11
F1.0
ssS'74932'
p161
(dp162
g9
F60.0
sg10
F5.0
sg11
F3.0
ssS'372'
p163
(dp164
g9
F100.0
sg10
F1.0
sg11
F1.0
ssS'375'
p165
(dp166
g9
F87.5
sg10
F8.0
sg11
F7.0
sssg14
S'121'
p167
sg15
F430.0
ssS'122'
p168
(dp169
g3
F8.0
sg4
F100.0
sg5
(dp170
g7
(dp171
g9
F100.0
sg10
F4.0
sg11
F4.0
ssg12
(dp172
g9
F100.0
sg10
F4.0
sg11
F4.0
sssg14
g168
sg15
F8.0
ssS'123'
p173
(dp174
g3
F6.0
sg4
F60.0
sg5
(dp175
g12
(dp176
g9
F60.0
sg10
F5.0
sg11
F3.0
ssg20
(dp177
g9
F60.0
sg10
F5.0
sg11
F3.0
sssg14
g173
sg15
F10.0
ssS'124'
p178
(dp179
g3
F6.0
sg4
F100.0
sg5
(dp180
g12
(dp181
g9
F100.0
sg10
F3.0
sg11
F3.0
ssg20
(dp182
g9
F100.0
sg10
F3.0
sg11
F3.0
sssg14
g178
sg15
F6.0
ssS'125'
p183
(dp184
g3
F6.0
sg4
F100.0
sg5
(dp185
g12
(dp186
g9
F100.0
sg10
F3.0
sg11
F3.0
ssg20
(dp187
g9
F100.0
sg10
F3.0
sg11
F3.0
sssg14
g183
sg15
F6.0
ssS'126'
p188
(dp189
g3
F2.0
sg4
F100.0
sg5
(dp190
g12
(dp191
g9
F100.0
sg10
F1.0
sg11
F1.0
ssg20
(dp192
g9
F100.0
sg10
F1.0
sg11
F1.0
sssg14
g188
sg15
F2.0
ssS'127'
p193
(dp194
g3
F4.0
sg4
F16.666666666666664
sg5
(dp195
g12
(dp196
g9
F16.666666666666664
sg10
F12.0
sg11
F2.0
ssg20
(dp197
g9
F16.666666666666664
sg10
F12.0
sg11
F2.0
sssg14
g193
sg15
F24.0
ssS'128'
p198
(dp199
g3
F2.0
sg4
F100.0
sg5
(dp200
g12
(dp201
g9
F100.0
sg10
F1.0
sg11
F1.0
ssg20
(dp202
g9
F100.0
sg10
F1.0
sg11
F1.0
sssg14
g198
sg15
F2.0
ssS'129'
p203
(dp204
g3
F10.0
sg4
F83.333333333333343
sg5
(dp205
g12
(dp206
g9
F83.333333333333343
sg10
F6.0
sg11
F5.0
ssg20
(dp207
g9
F83.333333333333343
sg10
F6.0
sg11
F5.0
sssg14
g203
sg15
F12.0
ssS'58'
p208
(dp209
g3
I0
sg4
F0.0
sg5
(dp210
g12
(dp211
g9
F0.0
sg10
F1.0
sg11
I0
sssg14
g208
sg15
F1.0
ssS'55'
p212
(dp213
g3
F128.0
sg4
F84.210526315789465
sg5
(dp214
g7
(dp215
g9
F100.0
sg10
F1.0
sg11
F1.0
ssg12
(dp216
g9
F84.210526315789465
sg10
F76.0
sg11
F64.0
ssg20
(dp217
g9
F84.0
sg10
F75.0
sg11
F63.0
sssg14
g212
sg15
F152.0
ssS'54'
p218
(dp219
g3
F14.0
sg4
F70.0
sg5
(dp220
g7
(dp221
g9
F0.0
sg10
F1.0
sg11
I0
ssg12
(dp222
g9
F70.0
sg10
F10.0
sg11
F7.0
ssg20
(dp223
g9
F77.777777777777786
sg10
F9.0
sg11
F7.0
sssg14
g218
sg15
F20.0
ssS'56'
p224
(dp225
g3
F62.0
sg4
F77.5
sg5
(dp226
S'7498'
p227
(dp228
g9
F85.714285714285708
sg10
F7.0
sg11
F6.0
ssg12
(dp229
g9
F77.5
sg10
F40.0
sg11
F31.0
ssg20
(dp230
g9
F75.757575757575751
sg10
F33.0
sg11
F25.0
sssg14
S'56'
p231
sg15
F80.0
ssS'53'
p232
(dp233
g3
F8.0
sg4
F100.0
sg5
(dp234
g12
(dp235
g9
F100.0
sg10
F4.0
sg11
F4.0
ssg20
(dp236
g9
F100.0
sg10
F4.0
sg11
F4.0
sssg14
g232
sg15
F8.0
ssS'52'
p237
(dp238
g3
F2.0
sg4
F100.0
sg5
(dp239
g12
(dp240
g9
F100.0
sg10
F1.0
sg11
F1.0
ssg20
(dp241
g9
F100.0
sg10
F1.0
sg11
F1.0
sssg14
g237
sg15
F2.0
ssS'115'
p242
(dp243
g3
F5.0
sg4
F71.428571428571431
sg5
(dp244
S'79299'
p245
(dp246
g9
F50.0
sg10
F2.0
sg11
F1.0
ssg12
(dp247
g9
F75.0
sg10
F4.0
sg11
F3.0
ssS'7985'
p248
(dp249
g9
F100.0
sg10
F1.0
sg11
F1.0
sssg14
S'\xd0\x92\xd1\x8b\xd0\xbc\xd0\xbf\xd0\xb5\xd0\xbb\xd0\x9a\xd0\xbe\xd0\xbc \xd0\xb4\xd0\xbe\xd0\xb3.JF053 (\xd0\xb4\xd0\xbb\xd1\x8f \xd0\x90\xd0\xb3\xd0\xb5\xd0\xbd\xd1\x81\xd0\xba\xd0\xbe\xd0\xb3\xd0\xbe \xd1\x82\xd1\x80\xd0\xb0\xd1\x84\xd0\xb8\xd0\xba\xd0\xb0)'
p250
sg15
F7.0
ssS'114'
p251
(dp252
g3
F12.0
sg4
F85.714285714285708
sg5
(dp253
g12
(dp254
g9
F85.714285714285708
sg10
F7.0
sg11
F6.0
ssg20
(dp255
g9
F85.714285714285708
sg10
F7.0
sg11
F6.0
sssg14
g251
sg15
F14.0
ssS'117'
p256
(dp257
g3
F2276.0
sg4
F72.368839427662962
sg5
(dp258
g75
(dp259
g9
F0.0
sg10
F1.0
sg11
I0
ssS'7813'
p260
(dp261
g9
F25.0
sg10
F4.0
sg11
F1.0
ssS'7811'
p262
(dp263
g9
F100.0
sg10
F1.0
sg11
F1.0
ssg112
(dp264
g9
F100.0
sg10
F5.0
sg11
F5.0
ssS'7384'
p265
(dp266
g9
F0.0
sg10
F2.0
sg11
I0
ssS'78312'
p267
(dp268
g9
F100.0
sg10
F1.0
sg11
F1.0
ssS'7841'
p269
(dp270
g9
F0.0
sg10
F3.0
sg11
I0
ssS'78412'
p271
(dp272
g9
F0.0
sg10
F3.0
sg11
I0
ssS'74712'
p273
(dp274
g9
F100.0
sg10
F2.0
sg11
F2.0
ssS'7800'
p275
(dp276
g9
F100.0
sg10
F2.0
sg11
F2.0
ssS'792537'
p277
(dp278
g9
F0.0
sg10
F1.0
sg11
I0
ssS'7391'
p279
(dp280
g9
F50.0
sg10
F6.0
sg11
F3.0
ssS'792535'
p281
(dp282
g9
F100.0
sg10
F1.0
sg11
F1.0
ssS'792533'
p283
(dp284
g9
F0.0
sg10
F1.0
sg11
I0
ssS'73472'
p285
(dp286
g9
F50.0
sg10
F4.0
sg11
F2.0
ssS'998'
p287
(dp288
g9
F100.0
sg10
F1.0
sg11
F1.0
ssS'7925509'
p289
(dp290
g9
F50.0
sg10
F2.0
sg11
F1.0
ssS'78432'
p291
(dp292
g9
F71.428571428571431
sg10
F7.0
sg11
F5.0
ssS'735192'
p293
(dp294
g9
F100.0
sg10
F1.0
sg11
F1.0
ssS'749621'
p295
(dp296
g9
F50.0
sg10
F2.0
sg11
F1.0
ssg77
(dp297
g9
F100.0
sg10
F2.0
sg11
F2.0
ssS'781371'
p298
(dp299
g9
F0.0
sg10
F3.0
sg11
I0
ssS'749624'
p300
(dp301
g9
F50.0
sg10
F2.0
sg11
F1.0
ssS'74152'
p302
(dp303
g9
F100.0
sg10
F1.0
sg11
F1.0
ssS'781375'
p304
(dp305
g9
F100.0
sg10
F1.0
sg11
F1.0
ssS'371'
p306
(dp307
g9
F100.0
sg10
F4.0
sg11
F4.0
ssg165
(dp308
g9
F20.0
sg10
F5.0
sg11
F1.0
ssS'7925514'
p309
(dp310
g9
F100.0
sg10
F1.0
sg11
F1.0
ssS'792520'
p311
(dp312
g9
F100.0
sg10
F1.0
sg11
F1.0
ssS'7925510'
p313
(dp314
g9
F0.0
sg10
F1.0
sg11
I0
ssS'74722'
p315
(dp316
g9
F100.0
sg10
F2.0
sg11
F2.0
ssS'79295'
p317
(dp318
g9
F100.0
sg10
F1.0
sg11
F1.0
ssS'79296'
p319
(dp320
g9
F100.0
sg10
F2.0
sg11
F2.0
ssS'784699'
p321
(dp322
g9
F100.0
sg10
F1.0
sg11
F1.0
ssS'86'
p323
(dp324
g9
F100.0
sg10
F1.0
sg11
F1.0
ssg245
(dp325
g9
F100.0
sg10
F3.0
sg11
F3.0
ssS'7925108'
p326
(dp327
g9
F100.0
sg10
F1.0
sg11
F1.0
ssS'796236'
p328
(dp329
g9
F100.0
sg10
F1.0
sg11
F1.0
ssS'74922'
p330
(dp331
g9
F0.0
sg10
F1.0
sg11
I0
ssg12
(dp332
g9
F71.894604767879542
sg10
F1594.0
sg11
F1146.0
ssS'420'
p333
(dp334
g9
F100.0
sg10
F2.0
sg11
F2.0
ssS'7349'
p335
(dp336
g9
F50.0
sg10
F2.0
sg11
F1.0
ssS'78612'
p337
(dp338
g9
F100.0
sg10
F2.0
sg11
F2.0
ssS'74852'
p339
(dp340
g9
F100.0
sg10
F2.0
sg11
F2.0
ssS'74732'
p341
(dp342
g9
F50.0
sg10
F4.0
sg11
F2.0
ssS'73512'
p343
(dp344
g9
F75.0
sg10
F4.0
sg11
F3.0
ssS'74855'
p345
(dp346
g9
F100.0
sg10
F1.0
sg11
F1.0
ssg227
(dp347
g9
F100.0
sg10
F8.0
sg11
F8.0
ssg141
(dp348
g9
F66.666666666666657
sg10
F12.0
sg11
F8.0
ssS'7865'
p349
(dp350
g9
F0.0
sg10
F1.0
sg11
I0
ssS'78452'
p351
(dp352
g9
F100.0
sg10
F1.0
sg11
F1.0
ssS'7862'
p353
(dp354
g9
F100.0
sg10
F1.0
sg11
F1.0
ssS'7861'
p355
(dp356
g9
F100.0
sg10
F2.0
sg11
F2.0
ssS'78422'
p357
(dp358
g9
F100.0
sg10
F1.0
sg11
F1.0
ssS'31'
p359
(dp360
g9
F33.333333333333329
sg10
F3.0
sg11
F1.0
ssS'747467'
p361
(dp362
g9
F100.0
sg10
F1.0
sg11
F1.0
ssS'7424'
p363
(dp364
g9
F100.0
sg10
F1.0
sg11
F1.0
ssS'7421'
p365
(dp366
g9
F100.0
sg10
F1.0
sg11
F1.0
ssS'73843'
p367
(dp368
g9
F0.0
sg10
F2.0
sg11
I0
ssS'79057'
p369
(dp370
g9
F100.0
sg10
F1.0
sg11
F1.0
ssS'73919'
p371
(dp372
g9
F50.0
sg10
F6.0
sg11
F3.0
ssS'78112'
p373
(dp374
g9
F100.0
sg10
F1.0
sg11
F1.0
ssS'73422'
p375
(dp376
g9
F75.0
sg10
F4.0
sg11
F3.0
ssg126
(dp377
g9
F50.0
sg10
F4.0
sg11
F2.0
ssS'7346'
p378
(dp379
g9
F100.0
sg10
F1.0
sg11
F1.0
ssS'7347'
p380
(dp381
g9
F33.333333333333329
sg10
F6.0
sg11
F2.0
ssS'7925517'
p382
(dp383
g9
F0.0
sg10
F1.0
sg11
I0
ssS'7342'
p384
(dp385
g9
F75.0
sg10
F4.0
sg11
F3.0
ssS'7343'
p386
(dp387
g9
F75.0
sg10
F4.0
sg11
F3.0
ssS'7855'
p388
(dp389
g9
F0.0
sg10
F1.0
sg11
I0
ssS'783143'
p390
(dp391
g9
F100.0
sg10
F1.0
sg11
F1.0
ssg89
(dp392
g9
F65.686274509803923
sg10
F102.0
sg11
F67.0
ssS'739193'
p393
(dp394
g9
F50.0
sg10
F6.0
sg11
F3.0
ssS'74742'
p395
(dp396
g9
F100.0
sg10
F1.0
sg11
F1.0
ssS'78453'
p397
(dp398
g9
F100.0
sg10
F1.0
sg11
F1.0
ssg7
(dp399
g9
F70.807453416149073
sg10
F161.0
sg11
F114.0
ssS'7492'
p400
(dp401
g9
F0.0
sg10
F2.0
sg11
I0
ssS'7353'
p402
(dp403
g9
F100.0
sg10
F1.0
sg11
F1.0
ssS'7491'
p404
(dp405
g9
F44.444444444444443
sg10
F9.0
sg11
F4.0
ssS'79104'
p406
(dp407
g9
F70.588235294117652
sg10
F17.0
sg11
F12.0
ssS'78212'
p408
(dp409
g9
F100.0
sg10
F1.0
sg11
F1.0
ssg20
(dp410
g9
F79.722222222222229
sg10
F720.0
sg11
F574.0
ssS'734368'
p411
(dp412
g9
F100.0
sg10
F1.0
sg11
F1.0
ssS'7411'
p413
(dp414
g9
F0.0
sg10
F1.0
sg11
I0
ssg248
(dp415
g9
F56.756756756756758
sg10
F37.0
sg11
F21.0
ssS'7415'
p416
(dp417
g9
F100.0
sg10
F1.0
sg11
F1.0
ssS'78352'
p418
(dp419
g9
F100.0
sg10
F1.0
sg11
F1.0
ssg70
(dp420
g9
F71.666666666666671
sg10
F120.0
sg11
F86.0
ssS'73433'
p421
(dp422
g9
F66.666666666666657
sg10
F3.0
sg11
F2.0
ssS'7351'
p423
(dp424
g9
F75.0
sg10
F8.0
sg11
F6.0
ssS'74112'
p425
(dp426
g9
F0.0
sg10
F1.0
sg11
I0
ssS'7486'
p427
(dp428
g9
F100.0
sg10
F4.0
sg11
F4.0
ssg98
(dp429
g9
F44.444444444444443
sg10
F9.0
sg11
F4.0
ssS'7482'
p430
(dp431
g9
F100.0
sg10
F1.0
sg11
F1.0
ssS'7845'
p432
(dp433
g9
F100.0
sg10
F2.0
sg11
F2.0
ssS'7846'
p434
(dp435
g9
F100.0
sg10
F2.0
sg11
F2.0
ssS'74752'
p436
(dp437
g9
F100.0
sg10
F1.0
sg11
F1.0
ssS'7843'
p438
(dp439
g9
F71.428571428571431
sg10
F7.0
sg11
F5.0
ssS'7842'
p440
(dp441
g9
F100.0
sg10
F1.0
sg11
F1.0
ssS'74212'
p442
(dp443
g9
F100.0
sg10
F1.0
sg11
F1.0
ssS'7925380'
p444
(dp445
g9
F0.0
sg10
F2.0
sg11
I0
ssS'7925384'
p446
(dp447
g9
F100.0
sg10
F1.0
sg11
F1.0
ssS'79175'
p448
(dp449
g9
F20.0
sg10
F5.0
sg11
F1.0
ssS'74912'
p450
(dp451
g9
F44.444444444444443
sg10
F9.0
sg11
F4.0
ssg135
(dp452
g9
F44.444444444444443
sg10
F9.0
sg11
F4.0
ssS'791999'
p453
(dp454
g9
F100.0
sg10
F2.0
sg11
F2.0
ssS'7831'
p455
(dp456
g9
F66.666666666666657
sg10
F6.0
sg11
F4.0
ssS'7835'
p457
(dp458
g9
F100.0
sg10
F1.0
sg11
F1.0
ssS'79250'
p459
(dp460
g9
F69.230769230769226
sg10
F13.0
sg11
F9.0
ssS'73833'
p461
(dp462
g9
F100.0
sg10
F3.0
sg11
F3.0
ssS'74242'
p463
(dp464
g9
F100.0
sg10
F1.0
sg11
F1.0
ssg157
(dp465
g9
F100.0
sg10
F1.0
sg11
F1.0
ssS'79258'
p466
(dp467
g9
F100.0
sg10
F2.0
sg11
F2.0
ssS'44'
p468
(dp469
g9
F100.0
sg10
F2.0
sg11
F2.0
ssg72
(dp470
g9
F66.666666666666657
sg10
F9.0
sg11
F6.0
ssS'74872'
p471
(dp472
g9
F50.0
sg10
F4.0
sg11
F2.0
ssS'7471'
p473
(dp474
g9
F100.0
sg10
F2.0
sg11
F2.0
ssS'7472'
p475
(dp476
g9
F100.0
sg10
F2.0
sg11
F2.0
ssS'7473'
p477
(dp478
g9
F50.0
sg10
F4.0
sg11
F2.0
ssS'7474'
p479
(dp480
g9
F100.0
sg10
F2.0
sg11
F2.0
ssS'7475'
p481
(dp482
g9
F100.0
sg10
F2.0
sg11
F2.0
ssg119
(dp483
g9
F100.0
sg10
F2.0
sg11
F2.0
ssS'78552'
p484
(dp485
g9
F0.0
sg10
F1.0
sg11
I0
ssS'792539'
p486
(dp487
g9
F100.0
sg10
F1.0
sg11
F1.0
ssS'7485'
p488
(dp489
g9
F75.0
sg10
F4.0
sg11
F3.0
ssS'792518'
p490
(dp491
g9
F100.0
sg10
F1.0
sg11
F1.0
ssS'792512'
p492
(dp493
g9
F100.0
sg10
F1.0
sg11
F1.0
ssS'7821'
p494
(dp495
g9
F100.0
sg10
F2.0
sg11
F2.0
ssS'792511'
p496
(dp497
g9
F0.0
sg10
F1.0
sg11
I0
ssS'78469'
p498
(dp499
g9
F100.0
sg10
F1.0
sg11
F1.0
ssS'78462'
p500
(dp501
g9
F100.0
sg10
F1.0
sg11
F1.0
ssS'79257'
p502
(dp503
g9
F80.0
sg10
F5.0
sg11
F4.0
ssS'7487'
p504
(dp505
g9
F33.333333333333329
sg10
F12.0
sg11
F4.0
ssS'74862'
p506
(dp507
g9
F100.0
sg10
F4.0
sg11
F4.0
ssS'7925368'
p508
(dp509
g9
F100.0
sg10
F1.0
sg11
F1.0
ssS'79153'
p510
(dp511
g9
F88.888888888888886
sg10
F9.0
sg11
F8.0
ssS'79152'
p512
(dp513
g9
F75.0
sg10
F8.0
sg11
F6.0
ssS'79151'
p514
(dp515
g9
F63.636363636363633
sg10
F11.0
sg11
F7.0
ssS'79150'
p516
(dp517
g9
F33.333333333333329
sg10
F6.0
sg11
F2.0
ssS'79154'
p518
(dp519
g9
F42.857142857142854
sg10
F7.0
sg11
F3.0
sssg14
S'\xd0\x91\xd0\xb8\xd0\xbb\xd0\xb0\xd0\xb9\xd0\xbd (\xd0\x92\xd1\x8b\xd0\xbc\xd0\xbf\xd0\xb5\xd0\xbb\xd0\x9a\xd0\xbe\xd0\xbc) \xd0\xb4\xd0\xbe\xd0\xb3.JF053'
p520
sg15
F3145.0
ssS'116'
p521
(dp522
g3
F20.0
sg4
F100.0
sg5
(dp523
g12
(dp524
g9
F100.0
sg10
F10.0
sg11
F10.0
ssg20
(dp525
g9
F100.0
sg10
F10.0
sg11
F10.0
sssg14
g521
sg15
F20.0
ssS'111'
p526
(dp527
g3
F6.0
sg4
F100.0
sg5
(dp528
g7
(dp529
g9
F100.0
sg10
F3.0
sg11
F3.0
ssg12
(dp530
g9
F100.0
sg10
F3.0
sg11
F3.0
sssg14
g526
sg15
F6.0
ssS'113'
p531
(dp532
g3
F6.0
sg4
F100.0
sg5
(dp533
g12
(dp534
g9
F100.0
sg10
F3.0
sg11
F3.0
ssg20
(dp535
g9
F100.0
sg10
F3.0
sg11
F3.0
sssg14
g531
sg15
F6.0
ssS'83'
p536
(dp537
g3
F48.0
sg4
F72.727272727272734
sg5
(dp538
g7
(dp539
g9
F87.5
sg10
F8.0
sg11
F7.0
ssg12
(dp540
g9
F72.727272727272734
sg10
F33.0
sg11
F24.0
ssg20
(dp541
g9
F68.0
sg10
F25.0
sg11
F17.0
sssg14
g536
sg15
F66.0
ssS'119'
p542
(dp543
g3
F6.0
sg4
F100.0
sg5
(dp544
g12
(dp545
g9
F100.0
sg10
F3.0
sg11
F3.0
ssg20
(dp546
g9
F100.0
sg10
F3.0
sg11
F3.0
sssg14
g542
sg15
F6.0
ssS'118'
p547
(dp548
g3
F6.0
sg4
F60.0
sg5
(dp549
g12
(dp550
g9
F60.0
sg10
F5.0
sg11
F3.0
ssg20
(dp551
g9
F60.0
sg10
F5.0
sg11
F3.0
sssg14
g547
sg15
F10.0
ssS'102'
p552
(dp553
g3
F16.0
sg4
F72.727272727272734
sg5
(dp554
g275
(dp555
g9
F100.0
sg10
F2.0
sg11
F2.0
ssg7
(dp556
g9
F66.666666666666657
sg10
F9.0
sg11
F6.0
ssg12
(dp557
g9
F72.727272727272734
sg10
F11.0
sg11
F8.0
sssg14
S'\xd0\x9a\xd0\xbe\xd0\xbc\xd1\x81\xd1\x82\xd0\xb0\xd1\x80 (\xd0\x9c\xd0\xa2\xd0\xa1) \xd0\xbc\xd0\xb5\xd1\x81\xd1\x82\xd0\xbd\xd1\x8b\xd0\xb9'
p558
sg15
F22.0
ssS'100'
p559
(dp560
g3
F24.0
sg4
F92.307692307692307
sg5
(dp561
g12
(dp562
g9
F92.307692307692307
sg10
F13.0
sg11
F12.0
ssg20
(dp563
g9
F92.307692307692307
sg10
F13.0
sg11
F12.0
sssg14
g559
sg15
F26.0
ssS'101'
p564
(dp565
g3
F6.0
sg4
F100.0
sg5
(dp566
g12
(dp567
g9
F100.0
sg10
F3.0
sg11
F3.0
ssg20
(dp568
g9
F100.0
sg10
F3.0
sg11
F3.0
sssg14
g564
sg15
F6.0
ssS'105'
p569
(dp570
g3
F4.0
sg4
F100.0
sg5
(dp571
g12
(dp572
g9
F100.0
sg10
F2.0
sg11
F2.0
ssg20
(dp573
g9
F100.0
sg10
F2.0
sg11
F2.0
sssg14
g569
sg15
F4.0
ssS'39'
p574
(dp575
g3
F12.0
sg4
F85.714285714285708
sg5
(dp576
g12
(dp577
g9
F85.714285714285708
sg10
F7.0
sg11
F6.0
ssg20
(dp578
g9
F85.714285714285708
sg10
F7.0
sg11
F6.0
sssg14
g574
sg15
F14.0
ssS'33'
p579
(dp580
g3
F40.0
sg4
F83.333333333333343
sg5
(dp581
g12
(dp582
g9
F76.923076923076934
sg10
F26.0
sg11
F20.0
ssg20
(dp583
g9
F90.909090909090907
sg10
F22.0
sg11
F20.0
sssg14
g579
sg15
F48.0
ssS'30'
p584
(dp585
g3
F4.0
sg4
F100.0
sg5
(dp586
g12
(dp587
g9
F100.0
sg10
F2.0
sg11
F2.0
ssg20
(dp588
g9
F100.0
sg10
F2.0
sg11
F2.0
sssg14
g584
sg15
F4.0
ssS'37'
p589
(dp590
g3
F62.0
sg4
F100.0
sg5
(dp591
g7
(dp592
g9
F100.0
sg10
F1.0
sg11
F1.0
ssg12
(dp593
g9
F100.0
sg10
F31.0
sg11
F31.0
ssg20
(dp594
g9
F100.0
sg10
F30.0
sg11
F30.0
sssg14
g589
sg15
F62.0
ssS'35'
p595
(dp596
g3
F44.0
sg4
F91.666666666666657
sg5
(dp597
g7
(dp598
g9
F100.0
sg10
F2.0
sg11
F2.0
ssg12
(dp599
g9
F91.666666666666657
sg10
F24.0
sg11
F22.0
ssg20
(dp600
g9
F90.909090909090907
sg10
F22.0
sg11
F20.0
sssg14
g595
sg15
F48.0
ssS'60'
p601
(dp602
g3
F4.0
sg4
F100.0
sg5
(dp603
g12
(dp604
g9
F100.0
sg10
F2.0
sg11
F2.0
ssg20
(dp605
g9
F100.0
sg10
F2.0
sg11
F2.0
sssg14
g601
sg15
F4.0
ssS'61'
p606
(dp607
g3
F2.0
sg4
F100.0
sg5
(dp608
g12
(dp609
g9
F100.0
sg10
F1.0
sg11
F1.0
ssg20
(dp610
g9
F100.0
sg10
F1.0
sg11
F1.0
sssg14
g606
sg15
F2.0
ssS'64'
p611
(dp612
g3
F26.0
sg4
F100.0
sg5
(dp613
g7
(dp614
g9
F100.0
sg10
F3.0
sg11
F3.0
ssg12
(dp615
g9
F100.0
sg10
F13.0
sg11
F13.0
ssg20
(dp616
g9
F100.0
sg10
F10.0
sg11
F10.0
sssg14
S'\xd0\x9c\xd0\x93\xd0\xa2\xd0\xa1 707  \xd0\x92\xd1\x81\xd0\xb5\xd0\xb2\xd0\xbe\xd0\xbb\xd0\xb6\xd1\x81\xd0\xba\xd0\xb8\xd0\xb9 \xd1\x83\xd0\xb7\xd0\xb5\xd0\xbb'
p617
sg15
F26.0
ssS'68'
p618
(dp619
g3
I0
sg4
F0.0
sg5
(dp620
g106
(dp621
g9
F0.0
sg10
F1.0
sg11
I0
ssg126
(dp622
g9
F0.0
sg10
F1.0
sg11
I0
ssg12
(dp623
g9
F0.0
sg10
F1.0
sg11
I0
sssg14
g618
sg15
F3.0
ssS'69'
p624
(dp625
g3
F38.0
sg4
F76.0
sg5
(dp626
g12
(dp627
g9
F76.0
sg10
F25.0
sg11
F19.0
ssg20
(dp628
g9
F76.0
sg10
F25.0
sg11
F19.0
sssg14
g624
sg15
F50.0
ssS'174'
p629
(dp630
g3
F1198.0
sg4
F59.277585353785256
sg5
(dp631
S'79636'
p632
(dp633
g9
F100.0
sg10
F8.0
sg11
F8.0
ssS'790915'
p634
(dp635
g9
F50.0
sg10
F4.0
sg11
F2.0
ssS'790916'
p636
(dp637
g9
F60.0
sg10
F5.0
sg11
F3.0
ssS'790396'
p638
(dp639
g9
F100.0
sg10
F4.0
sg11
F4.0
ssS'790397'
p640
(dp641
g9
F100.0
sg10
F2.0
sg11
F2.0
ssS'796378'
p642
(dp643
g9
F100.0
sg10
F1.0
sg11
F1.0
ssg375
(dp644
g9
F0.0
sg10
F2.0
sg11
I0
ssS'796372'
p645
(dp646
g9
F0.0
sg10
F2.0
sg11
I0
ssS'796371'
p647
(dp648
g9
F100.0
sg10
F1.0
sg11
F1.0
ssg81
(dp649
g9
F100.0
sg10
F1.0
sg11
F1.0
ssS'790366'
p650
(dp651
g9
F100.0
sg10
F1.0
sg11
F1.0
ssS'796471'
p652
(dp653
g9
F100.0
sg10
F1.0
sg11
F1.0
ssS'796470'
p654
(dp655
g9
F100.0
sg10
F2.0
sg11
F2.0
ssS'790361'
p656
(dp657
g9
F33.333333333333329
sg10
F3.0
sg11
F1.0
ssg132
(dp658
g9
F100.0
sg10
F4.0
sg11
F4.0
ssg277
(dp659
g9
F0.0
sg10
F1.0
sg11
I0
ssS'792532'
p660
(dp661
g9
F100.0
sg10
F1.0
sg11
F1.0
ssg289
(dp662
g9
F100.0
sg10
F1.0
sg11
F1.0
ssS'79031'
p663
(dp664
g9
F63.636363636363633
sg10
F22.0
sg11
F14.0
ssg77
(dp665
g9
F85.0
sg10
F20.0
sg11
F17.0
ssS'79035'
p666
(dp667
g9
F65.0
sg10
F20.0
sg11
F13.0
ssg79
(dp668
g9
F73.91304347826086
sg10
F23.0
sg11
F17.0
ssg309
(dp669
g9
F50.0
sg10
F2.0
sg11
F1.0
ssS'7963714'
p670
(dp671
g9
F100.0
sg10
F1.0
sg11
F1.0
ssg317
(dp672
g9
F50.0
sg10
F2.0
sg11
F1.0
ssg245
(dp673
g9
F0.0
sg10
F1.0
sg11
I0
ssg122
(dp674
g9
F66.666666666666657
sg10
F3.0
sg11
F2.0
ssS'79687'
p675
(dp676
g9
F100.0
sg10
F2.0
sg11
F2.0
ssS'790301'
p677
(dp678
g9
F100.0
sg10
F1.0
sg11
F1.0
ssS'790300'
p679
(dp680
g9
F100.0
sg10
F1.0
sg11
F1.0
ssg12
(dp681
g9
F59.679037111333997
sg10
F997.0
sg11
F595.0
ssS'796456'
p682
(dp683
g9
F50.0
sg10
F2.0
sg11
F1.0
ssS'796455'
p684
(dp685
g9
F100.0
sg10
F1.0
sg11
F1.0
ssS'796452'
p686
(dp687
g9
F100.0
sg10
F1.0
sg11
F1.0
ssS'796451'
p688
(dp689
g9
F0.0
sg10
F3.0
sg11
I0
ssg147
(dp690
g9
F0.0
sg10
F1.0
sg11
I0
ssS'33'
p691
(dp692
g9
F20.0
sg10
F20.0
sg11
F4.0
ssS'790964'
p693
(dp694
g9
F66.666666666666657
sg10
F3.0
sg11
F2.0
ssS'790966'
p695
(dp696
g9
F100.0
sg10
F1.0
sg11
F1.0
ssS'790963'
p697
(dp698
g9
F100.0
sg10
F1.0
sg11
F1.0
ssS'790962'
p699
(dp700
g9
F100.0
sg10
F2.0
sg11
F2.0
ssg369
(dp701
g9
F66.666666666666657
sg10
F24.0
sg11
F16.0
ssS'79055'
p702
(dp703
g9
F57.894736842105267
sg10
F19.0
sg11
F11.0
ssS'791972'
p704
(dp705
g9
F100.0
sg10
F1.0
sg11
F1.0
ssS'79672'
p706
(dp707
g9
F100.0
sg10
F2.0
sg11
F2.0
ssS'79670'
p708
(dp709
g9
F100.0
sg10
F4.0
sg11
F4.0
ssg100
(dp710
g9
F60.0
sg10
F5.0
sg11
F3.0
ssg384
(dp711
g9
F0.0
sg10
F2.0
sg11
I0
ssg89
(dp712
g9
F55.813953488372093
sg10
F43.0
sg11
F24.0
ssg395
(dp713
g9
F0.0
sg10
F1.0
sg11
I0
ssg227
(dp714
g9
F0.0
sg10
F1.0
sg11
I0
ssg7
(dp715
g9
F60.416666666666664
sg10
F48.0
sg11
F29.0
ssg406
(dp716
g9
F66.666666666666657
sg10
F9.0
sg11
F6.0
ssg20
(dp717
g9
F50.595238095238095
sg10
F504.0
sg11
F255.0
ssg248
(dp718
g9
F61.111111111111114
sg10
F18.0
sg11
F11.0
ssS'79060'
p719
(dp720
g9
F75.0
sg10
F8.0
sg11
F6.0
ssg130
(dp721
g9
F81.818181818181827
sg10
F11.0
sg11
F9.0
ssS'790362'
p722
(dp723
g9
F75.0
sg10
F4.0
sg11
F3.0
ssg70
(dp724
g9
F83.720930232558146
sg10
F43.0
sg11
F36.0
ssS'796526'
p725
(dp726
g9
F100.0
sg10
F1.0
sg11
F1.0
ssS'796524'
p727
(dp728
g9
F100.0
sg10
F1.0
sg11
F1.0
ssS'796522'
p729
(dp730
g9
F0.0
sg10
F1.0
sg11
I0
ssg434
(dp731
g9
F100.0
sg10
F5.0
sg11
F5.0
ssg448
(dp732
g9
F80.0
sg10
F5.0
sg11
F4.0
ssg95
(dp733
g9
F90.0
sg10
F10.0
sg11
F9.0
ssS'79651'
p734
(dp735
g9
F44.444444444444443
sg10
F9.0
sg11
F4.0
ssS'79652'
p736
(dp737
g9
F66.666666666666657
sg10
F3.0
sg11
F2.0
ssg102
(dp738
g9
F75.0
sg10
F8.0
sg11
F6.0
ssg459
(dp739
g9
F100.0
sg10
F2.0
sg11
F2.0
ssS'796396'
p740
(dp741
g9
F50.0
sg10
F2.0
sg11
F1.0
ssg502
(dp742
g9
F0.0
sg10
F1.0
sg11
I0
ssg466
(dp743
g9
F50.0
sg10
F2.0
sg11
F1.0
ssS'796399'
p744
(dp745
g9
F100.0
sg10
F2.0
sg11
F2.0
ssS'791910'
p746
(dp747
g9
F50.0
sg10
F2.0
sg11
F1.0
ssS'7925319'
p748
(dp749
g9
F0.0
sg10
F1.0
sg11
I0
ssg475
(dp750
g9
F50.0
sg10
F2.0
sg11
F1.0
ssg479
(dp751
g9
F0.0
sg10
F1.0
sg11
I0
ssg481
(dp752
g9
F50.0
sg10
F2.0
sg11
F1.0
ssS'79629'
p753
(dp754
g9
F87.5
sg10
F8.0
sg11
F7.0
ssg490
(dp755
g9
F100.0
sg10
F1.0
sg11
F1.0
ssS'796544'
p756
(dp757
g9
F100.0
sg10
F1.0
sg11
F1.0
ssS'79015'
p758
(dp759
g9
F55.555555555555557
sg10
F9.0
sg11
F5.0
ssg500
(dp760
g9
F100.0
sg10
F5.0
sg11
F5.0
ssg85
(dp761
g9
F0.0
sg10
F1.0
sg11
I0
ssS'796463'
p762
(dp763
g9
F50.0
sg10
F2.0
sg11
F1.0
ssg510
(dp764
g9
F100.0
sg10
F2.0
sg11
F2.0
ssg512
(dp765
g9
F75.0
sg10
F4.0
sg11
F3.0
ssg514
(dp766
g9
F33.333333333333329
sg10
F3.0
sg11
F1.0
ssg516
(dp767
g9
F100.0
sg10
F2.0
sg11
F2.0
ssg518
(dp768
g9
F100.0
sg10
F2.0
sg11
F2.0
sssg14
S'174'
p769
sg15
F2021.0
ssS'172'
p770
(dp771
g3
F12.0
sg4
F100.0
sg5
(dp772
g12
(dp773
g9
F100.0
sg10
F6.0
sg11
F6.0
ssg20
(dp774
g9
F100.0
sg10
F6.0
sg11
F6.0
sssg14
g770
sg15
F12.0
ssS'2'
p775
(dp776
g3
F4.0
sg4
F100.0
sg5
(dp777
g12
(dp778
g9
F100.0
sg10
F2.0
sg11
F2.0
ssg20
(dp779
g9
F100.0
sg10
F2.0
sg11
F2.0
sssg14
g775
sg15
F4.0
ssS'6'
p780
(dp781
g3
F27.0
sg4
F47.368421052631575
sg5
(dp782
g12
(dp783
g9
F48.275862068965516
sg10
F29.0
sg11
F14.0
ssg20
(dp784
g9
F46.428571428571431
sg10
F28.0
sg11
F13.0
sssg14
g780
sg15
F57.0
ssS'98'
p785
(dp786
g3
F6.0
sg4
F60.0
sg5
(dp787
g12
(dp788
g9
F60.0
sg10
F5.0
sg11
F3.0
ssg20
(dp789
g9
F60.0
sg10
F5.0
sg11
F3.0
sssg14
g785
sg15
F10.0
ssS'169'
p790
(dp791
g3
F13.0
sg4
F86.666666666666671
sg5
(dp792
g70
(dp793
g9
F80.0
sg10
F5.0
sg11
F4.0
ssg83
(dp794
g9
F100.0
sg10
F2.0
sg11
F2.0
ssg12
(dp795
g9
F87.5
sg10
F8.0
sg11
F7.0
sssg14
S'\xd0\xa1\xd0\xb8\xd0\xbd\xd1\x82\xd0\xb5\xd1\x80\xd1\x80\xd0\xb0 (\xd0\xbf\xd0\xbe\xd0\xbb\xd1\x83\xd1\x87\xd0\xb0\xd0\xb5\xd0\xbc \xd0\xbd\xd0\xbe\xd0\xbc\xd0\xb5\xd1\x80\xd0\xb0 789-4250\xe2\x80\xa6 7894699) LINK 5 DPC \xd0\xbf\xd0\xbe\xd0\xb8\xd0\xbd\xd1\x82\xd0\xba\xd0\xbe\xd0\xb4 20 \xd0\xbd\xd0\xb0\xd1\x88 \xd0\x9e\xd0\xa0\xd0\xa1 274'
p796
sg15
F15.0
ssS'91'
p797
(dp798
g3
F36.0
sg4
F100.0
sg5
(dp799
g12
(dp800
g9
F100.0
sg10
F18.0
sg11
F18.0
ssg20
(dp801
g9
F100.0
sg10
F18.0
sg11
F18.0
sssg14
g797
sg15
F36.0
ssS'90'
p802
(dp803
g3
F12.0
sg4
F75.0
sg5
(dp804
g12
(dp805
g9
F75.0
sg10
F8.0
sg11
F6.0
ssg20
(dp806
g9
F75.0
sg10
F8.0
sg11
F6.0
sssg14
g802
sg15
F16.0
ssS'166'
p807
(dp808
g3
F4.0
sg4
F100.0
sg5
(dp809
g12
(dp810
g9
F100.0
sg10
F2.0
sg11
F2.0
ssg20
(dp811
g9
F100.0
sg10
F2.0
sg11
F2.0
sssg14
g807
sg15
F4.0
ssS'167'
p812
(dp813
g3
F6.0
sg4
F60.0
sg5
(dp814
g12
(dp815
g9
F60.0
sg10
F10.0
sg11
F6.0
sssg14
g812
sg15
F10.0
ssS'97'
p816
(dp817
g3
F8.0
sg4
F57.142857142857139
sg5
(dp818
g7
(dp819
g9
F0.0
sg10
F1.0
sg11
I0
ssg12
(dp820
g9
F57.142857142857139
sg10
F7.0
sg11
F4.0
ssg20
(dp821
g9
F66.666666666666657
sg10
F6.0
sg11
F4.0
sssg14
S'\xd0\x90\xd0\xa1\xd0\x92\xd0\xa2'
p822
sg15
F14.0
ssS'96'
p823
(dp824
g3
F2.0
sg4
F100.0
sg5
(dp825
g12
(dp826
g9
F100.0
sg10
F1.0
sg11
F1.0
ssg20
(dp827
g9
F100.0
sg10
F1.0
sg11
F1.0
sssg14
g823
sg15
F2.0
ssS'10'
p828
(dp829
g3
F4.0
sg4
F66.666666666666657
sg5
(dp830
g7
(dp831
g9
F100.0
sg10
F1.0
sg11
F1.0
ssg12
(dp832
g9
F66.666666666666657
sg10
F3.0
sg11
F2.0
ssg20
(dp833
g9
F50.0
sg10
F2.0
sg11
F1.0
sssg14
g828
sg15
F6.0
ssS'13'
p834
(dp835
g3
F4.0
sg4
F100.0
sg5
(dp836
g12
(dp837
g9
F100.0
sg10
F2.0
sg11
F2.0
ssg20
(dp838
g9
F100.0
sg10
F2.0
sg11
F2.0
sssg14
g834
sg15
F4.0
ssS'17'
p839
(dp840
g3
F11.0
sg4
F100.0
sg5
(dp841
g341
(dp842
g9
F100.0
sg10
F1.0
sg11
F1.0
ssg666
(dp843
g9
F100.0
sg10
F1.0
sg11
F1.0
ssg20
(dp844
g9
F100.0
sg10
F2.0
sg11
F2.0
ssg12
(dp845
g9
F100.0
sg10
F5.0
sg11
F5.0
ssg477
(dp846
g9
F100.0
sg10
F1.0
sg11
F1.0
ssg89
(dp847
g9
F100.0
sg10
F1.0
sg11
F1.0
sssg14
S'\xd0\x91\xd0\xb8\xd0\xbb\xd0\xbb\xd0\xb0\xd0\xb9\xd0\xbd(\xd0\x92\xd1\x8b\xd0\xbc\xd0\xbf\xd0\xb5\xd0\xbb\xd0\xba\xd0\xbe\xd0\xbc)   \xd0\x9d\xd0\x9e0003 - \xd0\xba\xd0\xbb\xd0\xb8\xd0\xb5\xd0\xbd\xd1\x82\xd1\x8b \xd0\xa1\xd0\xbe\xd0\xb2\xd0\xb8\xd0\xbd\xd1\x82\xd0\xb5\xd0\xbb\xd0\xb0 \xd0\xbd\xd0\xb0 \xd0\x90\xd0\xbb\xd0\xba\xd0\xb0\xd1\x82\xd0\xb5\xd0\xbb\xd0\xb5'
p848
sg15
F11.0
ssS'88'
p849
(dp850
g3
F14.0
sg4
F100.0
sg5
(dp851
g12
(dp852
g9
F100.0
sg10
F7.0
sg11
F7.0
ssg20
(dp853
g9
F100.0
sg10
F7.0
sg11
F7.0
sssg14
g849
sg15
F14.0
ssS'150'
p854
(dp855
g3
F62.0
sg4
F96.875
sg5
(dp856
g12
(dp857
g9
F96.875
sg10
F32.0
sg11
F31.0
ssg20
(dp858
g9
F96.875
sg10
F32.0
sg11
F31.0
sssg14
g854
sg15
F64.0
ssS'153'
p859
(dp860
g3
F26.0
sg4
F76.470588235294116
sg5
(dp861
g12
(dp862
g9
F76.470588235294116
sg10
F17.0
sg11
F13.0
ssg20
(dp863
g9
F76.470588235294116
sg10
F17.0
sg11
F13.0
sssg14
S'\xd0\x9d\xd0\x98\xd0\x98\xd0\xa1\xd0\x90'
p864
sg15
F34.0
ssS'155'
p865
(dp866
g3
F21.0
sg4
F63.636363636363633
sg5
(dp867
g459
(dp868
g9
F0.0
sg10
F1.0
sg11
I0
ssg7
(dp869
g9
F50.0
sg10
F4.0
sg11
F2.0
ssS'79689'
p870
(dp871
g9
F100.0
sg10
F1.0
sg11
F1.0
ssS'73852'
p872
(dp873
g9
F100.0
sg10
F1.0
sg11
F1.0
ssg663
(dp874
g9
F100.0
sg10
F1.0
sg11
F1.0
ssg20
(dp875
g9
F57.142857142857139
sg10
F7.0
sg11
F4.0
ssg12
(dp876
g9
F62.5
sg10
F16.0
sg11
F10.0
ssg102
(dp877
g9
F100.0
sg10
F1.0
sg11
F1.0
ssS'7385'
p878
(dp879
g9
F100.0
sg10
F1.0
sg11
F1.0
sssg14
S'A2 M200 link 9 DPC \xd0\xbf\xd0\xbe\xd0\xb8\xd0\xbd\xd1\x82\xd0\xba\xd0\xbe\xd0\xb4 190 \xd0\xbd\xd0\xb0\xd1\x88 OPC 274'
p880
sg15
F33.0
ssS'157'
p881
(dp882
g3
F14.0
sg4
F100.0
sg5
(dp883
g12
(dp884
g9
F100.0
sg10
F7.0
sg11
F7.0
ssg20
(dp885
g9
F100.0
sg10
F7.0
sg11
F7.0
sssg14
g881
sg15
F14.0
ssS'159'
p886
(dp887
g3
F34.0
sg4
F94.444444444444443
sg5
(dp888
g12
(dp889
g9
F94.444444444444443
sg10
F18.0
sg11
F17.0
ssg20
(dp890
g9
F94.444444444444443
sg10
F18.0
sg11
F17.0
sssg14
g886
sg15
F36.0
ssS'158'
p891
(dp892
g3
F10.0
sg4
F100.0
sg5
(dp893
g7
(dp894
g9
F100.0
sg10
F2.0
sg11
F2.0
ssg12
(dp895
g9
F100.0
sg10
F5.0
sg11
F5.0
ssg20
(dp896
g9
F100.0
sg10
F3.0
sg11
F3.0
sssg14
g891
sg15
F10.0
ssS'48'
p897
(dp898
g3
F4.0
sg4
F66.666666666666657
sg5
(dp899
g12
(dp900
g9
F66.666666666666657
sg10
F3.0
sg11
F2.0
ssg20
(dp901
g9
F66.666666666666657
sg10
F3.0
sg11
F2.0
sssg14
g897
sg15
F6.0
ssS'49'
p902
(dp903
g3
F30.0
sg4
F75.0
sg5
(dp904
g12
(dp905
g9
F76.19047619047619
sg10
F21.0
sg11
F16.0
ssg20
(dp906
g9
F73.68421052631578
sg10
F19.0
sg11
F14.0
sssg14
g902
sg15
F40.0
ssS'46'
p907
(dp908
g3
F10.0
sg4
F100.0
sg5
(dp909
g12
(dp910
g9
F100.0
sg10
F5.0
sg11
F5.0
ssg20
(dp911
g9
F100.0
sg10
F5.0
sg11
F5.0
sssg14
g907
sg15
F10.0
ssS'44'
p912
(dp913
g3
F22.0
sg4
F68.75
sg5
(dp914
g12
(dp915
g9
F68.75
sg10
F16.0
sg11
F11.0
ssg20
(dp916
g9
F68.75
sg10
F16.0
sg11
F11.0
sssg14
g912
sg15
F32.0
ssS'45'
p917
(dp918
g3
F62.0
sg4
F79.487179487179489
sg5
(dp919
g7
(dp920
g9
F80.0
sg10
F10.0
sg11
F8.0
ssg12
(dp921
g9
F79.487179487179489
sg10
F39.0
sg11
F31.0
ssg20
(dp922
g9
F79.310344827586206
sg10
F29.0
sg11
F23.0
sssg14
S'45'
p923
sg15
F78.0
ssS'42'
p924
(dp925
g3
F8.0
sg4
F80.0
sg5
(dp926
g12
(dp927
g9
F80.0
sg10
F5.0
sg11
F4.0
ssg20
(dp928
g9
F80.0
sg10
F5.0
sg11
F4.0
sssg14
g924
sg15
F10.0
ssS'43'
p929
(dp930
g3
F10.0
sg4
F100.0
sg5
(dp931
g7
(dp932
g9
F100.0
sg10
F4.0
sg11
F4.0
ssg12
(dp933
g9
F100.0
sg10
F5.0
sg11
F5.0
ssg20
(dp934
g9
F100.0
sg10
F1.0
sg11
F1.0
sssg14
S'\xd0\x9d\xd0\xbe\xd0\xb2\xd1\x8b\xd0\xb5 \xd0\xa1\xd0\xb8\xd1\x81\xd1\x82\xd0\xb5\xd0\xbc\xd1\x8b \xd0\xa2\xd0\x9a\xd0\x9a'
p935
sg15
F10.0
ssS'40'
p936
(dp937
g3
F6.0
sg4
F100.0
sg5
(dp938
g12
(dp939
g9
F100.0
sg10
F3.0
sg11
F3.0
ssg20
(dp940
g9
F100.0
sg10
F3.0
sg11
F3.0
sssg14
g936
sg15
F6.0
ssS'41'
p941
(dp942
g3
F34.0
sg4
F80.952380952380949
sg5
(dp943
g12
(dp944
g9
F80.952380952380949
sg10
F21.0
sg11
F17.0
ssg20
(dp945
g9
F80.952380952380949
sg10
F21.0
sg11
F17.0
sssg14
g941
sg15
F42.0
ssS'5'
p946
(dp947
g3
F1.0
sg4
F100.0
sg5
(dp948
g12
(dp949
g9
F100.0
sg10
F1.0
sg11
F1.0
sssg14
g946
sg15
F1.0
ssS'9'
p950
(dp951
g3
F2.0
sg4
F100.0
sg5
(dp952
g12
(dp953
g9
F100.0
sg10
F1.0
sg11
F1.0
ssg20
(dp954
g9
F100.0
sg10
F1.0
sg11
F1.0
sssg14
S'\xd0\xa0\xd0\xb8\xd0\xbc-2000'
p955
sg15
F2.0
ssS'146'
p956
(dp957
g3
I0
sg4
F0.0
sg5
(dp958
g12
(dp959
g9
F0.0
sg10
F1.0
sg11
I0
ssg20
(dp960
g9
F0.0
sg10
F1.0
sg11
I0
sssg14
g956
sg15
F2.0
ssS'147'
p961
(dp962
g3
F58.0
sg4
F80.555555555555557
sg5
(dp963
g7
(dp964
g9
F100.0
sg10
F2.0
sg11
F2.0
ssg12
(dp965
g9
F80.555555555555557
sg10
F36.0
sg11
F29.0
ssg20
(dp966
g9
F79.411764705882348
sg10
F34.0
sg11
F27.0
sssg14
g961
sg15
F72.0
ssS'144'
p967
(dp968
g3
F2.0
sg4
F100.0
sg5
(dp969
g12
(dp970
g9
F100.0
sg10
F1.0
sg11
F1.0
ssg20
(dp971
g9
F100.0
sg10
F1.0
sg11
F1.0
sssg14
g967
sg15
F2.0
ssS'145'
p972
(dp973
g3
F74.0
sg4
F90.243902439024396
sg5
(dp974
g12
(dp975
g9
F90.243902439024396
sg10
F41.0
sg11
F37.0
ssg20
(dp976
g9
F90.243902439024396
sg10
F41.0
sg11
F37.0
sssg14
g972
sg15
F82.0
ssS'143'
p977
(dp978
g3
F2.0
sg4
F100.0
sg5
(dp979
g12
(dp980
g9
F100.0
sg10
F1.0
sg11
F1.0
ssg20
(dp981
g9
F100.0
sg10
F1.0
sg11
F1.0
sssg14
g977
sg15
F2.0
ssS'75'
p982
(dp983
g3
F60.0
sg4
F100.0
sg5
(dp984
g12
(dp985
g9
F100.0
sg10
F30.0
sg11
F30.0
ssg20
(dp986
g9
F100.0
sg10
F30.0
sg11
F30.0
sssg14
g982
sg15
F60.0
ssS'71'
p987
(dp988
g3
F26.0
sg4
F86.666666666666671
sg5
(dp989
g227
(dp990
g9
F100.0
sg10
F1.0
sg11
F1.0
ssg7
(dp991
g9
F66.666666666666657
sg10
F3.0
sg11
F2.0
ssg12
(dp992
g9
F86.666666666666671
sg10
F15.0
sg11
F13.0
ssg20
(dp993
g9
F90.909090909090907
sg10
F11.0
sg11
F10.0
sssg14
g987
sg15
F30.0
ssS'70'
p994
(dp995
g3
F24.0
sg4
F80.0
sg5
(dp996
g12
(dp997
g9
F80.0
sg10
F15.0
sg11
F12.0
ssg20
(dp998
g9
F80.0
sg10
F15.0
sg11
F12.0
sssg14
g994
sg15
F30.0
ssS'79'
p999
(dp1000
g3
F8.0
sg4
F100.0
sg5
(dp1001
g12
(dp1002
g9
F100.0
sg10
F4.0
sg11
F4.0
ssg20
(dp1003
g9
F100.0
sg10
F4.0
sg11
F4.0
sssg14
g999
sg15
F8.0
ssS'78'
p1004
(dp1005
g3
F840.0
sg4
F89.935760171306214
sg5
(dp1006
g7
(dp1007
g9
F76.470588235294116
sg10
F34.0
sg11
F26.0
ssg12
(dp1008
g9
F89.935760171306214
sg10
F467.0
sg11
F420.0
ssg20
(dp1009
g9
F90.993071593533486
sg10
F433.0
sg11
F394.0
sssg14
g1004
sg15
F934.0
ss.