(dp0
S'78722'
p1
(dp2
S'suc_calls'
p3
F1.0
sS'asr'
p4
F100.0
sS'without_tg'
p5
I0
sS'trunks'
p6
(dp7
S'CAPIT'
p8
(dp9
S'tg_asr'
p10
F100.0
sS'tg_suc_calls'
p11
F1.0
sS'tg_name'
p12
g8
sS'tg_calls'
p13
F1.0
sssS'calls'
p14
F1.0
ssS'7812'
p15
(dp16
g3
F11.0
sg4
F84.615384615384613
sg5
I0
sg6
(dp17
S'DT'
p18
(dp19
g10
F80.0
sg11
F4.0
sg12
S'\xd0\x94\xd0\xbe\xd0\xb9\xd1\x87\xd0\xb5 \xd0\xa2\xd0\xb5\xd0\xbb\xd0\xb5\xd0\xba\xd0\xbe\xd0\xbc premium'
p20
sg13
F5.0
ssS'CAPIT'
p21
(dp22
g10
F83.333333333333343
sg11
F5.0
sg12
g21
sg13
F6.0
ssS'SI'
p23
(dp24
g10
F100.0
sg11
F2.0
sg12
g23
sg13
F2.0
sssg14
F13.0
ssS'7813'
p25
(dp26
g3
F3.0
sg4
F100.0
sg5
I0
sg6
(dp27
S'CAPIT'
p28
(dp29
g10
F100.0
sg11
F1.0
sg12
g28
sg13
F1.0
ssS'DT'
p30
(dp31
g10
F100.0
sg11
F2.0
sg12
g20
sg13
F2.0
sssg14
F3.0
ssS'7482'
p32
(dp33
g3
I0
sg4
F0.0
sg5
I0
sg6
(dp34
S'DT'
p35
(dp36
g10
F0.0
sg11
I0
sg12
g20
sg13
F1.0
ssS'4995570600'
p37
(dp38
g10
F0.0
sg11
I0
sg12
g37
sg13
F2.0
sssg14
F3.0
ssS'79636'
p39
(dp40
g3
F6.0
sg4
F66.666666666666657
sg5
I0
sg6
(dp41
S'SOVIN3O'
p42
(dp43
g10
F57.142857142857139
sg11
F4.0
sg12
g42
sg13
F7.0
ssS'MAKOM'
p44
(dp45
g10
F100.0
sg11
F2.0
sg12
S'\xd0\x9c\xd0\xb0\xd0\xba\xd0\xbe\xd0\xbc\xd0\xbd\xd0\xb5\xd1\x82'
p46
sg13
F2.0
sssg14
F9.0
ssS'7818'
p47
(dp48
g3
I0
sg4
F0.0
sg5
I0
sg6
(dp49
S'CAPIT'
p50
(dp51
g10
F0.0
sg11
I0
sg12
g50
sg13
F2.0
sssg14
F2.0
ssS'7382'
p52
(dp53
g3
F2.0
sg4
F100.0
sg5
I0
sg6
(dp54
S'CAPIT'
p55
(dp56
g10
F100.0
sg11
F2.0
sg12
g55
sg13
F2.0
sssg14
F2.0
ssS'790915'
p57
(dp58
g3
F1.0
sg4
F100.0
sg5
I0
sg6
(dp59
S'MAKOM'
p60
(dp61
g10
F100.0
sg11
F1.0
sg12
g46
sg13
F1.0
sssg14
F1.0
ssS'790916'
p62
(dp63
g3
I0
sg4
F0.0
sg5
I0
sg6
(dp64
S'SOVIN3O'
p65
(dp66
g10
F0.0
sg11
I0
sg12
g65
sg13
F2.0
sssg14
F2.0
ssS'41'
p67
(dp68
g3
F2.0
sg4
F100.0
sg5
I0
sg6
(dp69
S'SI2'
p70
(dp71
g10
F100.0
sg11
F1.0
sg12
g70
sg13
F1.0
ssS'DT'
p72
(dp73
g10
F100.0
sg11
F1.0
sg12
g20
sg13
F1.0
sssg14
F2.0
ssS'790396'
p74
(dp75
g3
F3.0
sg4
F75.0
sg5
I0
sg6
(dp76
S'SOVIN3O'
p77
(dp78
g10
F66.666666666666657
sg11
F2.0
sg12
g77
sg13
F3.0
ssS'MAKOM'
p79
(dp80
g10
F100.0
sg11
F1.0
sg12
g46
sg13
F1.0
sssg14
F4.0
ssS'790397'
p81
(dp82
g3
F1.0
sg4
F100.0
sg5
I0
sg6
(dp83
S'SOVIN3O'
p84
(dp85
g10
F100.0
sg11
F1.0
sg12
g84
sg13
F1.0
sssg14
F1.0
ssS'796378'
p86
(dp87
g3
F1.0
sg4
F50.0
sg5
I0
sg6
(dp88
S'SOVIN3O'
p89
(dp90
g10
F50.0
sg11
F1.0
sg12
g89
sg13
F2.0
sssg14
F2.0
ssS'796521'
p91
(dp92
g3
F1.0
sg4
F100.0
sg5
I0
sg6
(dp93
S'SOVIN3O'
p94
(dp95
g10
F100.0
sg11
F1.0
sg12
g94
sg13
F1.0
sssg14
F1.0
ssS'73422'
p96
(dp97
g3
I0
sg4
F0.0
sg5
I0
sg6
(dp98
S'DT'
p99
(dp100
g10
F0.0
sg11
I0
sg12
g20
sg13
F1.0
sssg14
F1.0
ssS'796372'
p101
(dp102
g3
F1.0
sg4
F100.0
sg5
I0
sg6
(dp103
S'SOVIN3O'
p104
(dp105
g10
F100.0
sg11
F1.0
sg12
g104
sg13
F1.0
sssg14
F1.0
ssS'791976'
p106
(dp107
g3
I0
sg4
F0.0
sg5
I0
sg6
(dp108
S'COMST'
p109
(dp110
g10
F0.0
sg11
I0
sg12
S'\xd0\x9c\xd0\xa2\xd0\xa1 (\xd0\x9a\xd0\x9e\xd0\x9c\xd0\xa1\xd0\xa2\xd0\x90\xd0\xa0) \xd0\xb7\xd0\xbe\xd0\xbd\xd0\xb0-\xd0\xb7\xd0\xbe\xd0\xbd\xd0\xb0'
p111
sg13
F1.0
sssg14
F1.0
ssS'790367'
p112
(dp113
g3
F3.0
sg4
F75.0
sg5
I0
sg6
(dp114
S'SOVIN3O'
p115
(dp116
g10
F50.0
sg11
F1.0
sg12
g115
sg13
F2.0
ssS'MAKOM'
p117
(dp118
g10
F100.0
sg11
F2.0
sg12
g46
sg13
F2.0
sssg14
F4.0
ssS'790366'
p119
(dp120
g3
F2.0
sg4
F100.0
sg5
I0
sg6
(dp121
S'SOVIN3O'
p122
(dp123
g10
F100.0
sg11
F1.0
sg12
g122
sg13
F1.0
ssS'MAKOM'
p124
(dp125
g10
F100.0
sg11
F1.0
sg12
g46
sg13
F1.0
sssg14
F2.0
ssS'790362'
p126
(dp127
g3
F1.0
sg4
F25.0
sg5
I0
sg6
(dp128
S'SOVIN3O'
p129
(dp130
g10
F0.0
sg11
I0
sg12
g129
sg13
F2.0
ssS'MAKOM'
p131
(dp132
g10
F50.0
sg11
F1.0
sg12
g46
sg13
F2.0
sssg14
F4.0
ssS'790361'
p133
(dp134
g3
F4.0
sg4
F80.0
sg5
I0
sg6
(dp135
S'SOVIN3O'
p136
(dp137
g10
F75.0
sg11
F3.0
sg12
g136
sg13
F4.0
ssS'MAKOM'
p138
(dp139
g10
F100.0
sg11
F1.0
sg12
g46
sg13
F1.0
sssg14
F5.0
ssS'796472'
p140
(dp141
g3
F1.0
sg4
F100.0
sg5
I0
sg6
(dp142
S'SOVIN3O'
p143
(dp144
g10
F100.0
sg11
F1.0
sg12
g143
sg13
F1.0
sssg14
F1.0
ssS'790368'
p145
(dp146
g3
F1.0
sg4
F100.0
sg5
I0
sg6
(dp147
S'SOVIN3O'
p148
(dp149
g10
F100.0
sg11
F1.0
sg12
g148
sg13
F1.0
sssg14
F1.0
ssS'7925507'
p150
(dp151
g3
F1.0
sg4
F100.0
sg5
I0
sg6
(dp152
S'SOVIN3O'
p153
(dp154
g10
F100.0
sg11
F1.0
sg12
g153
sg13
F1.0
sssg14
F1.0
ssS'74832'
p155
(dp156
g3
F1.0
sg4
F50.0
sg5
I0
sg6
(dp157
S'CAPIT'
p158
(dp159
g10
F50.0
sg11
F1.0
sg12
g158
sg13
F2.0
sssg14
F2.0
ssS'792537'
p160
(dp161
g3
I0
sg4
F0.0
sg5
I0
sg6
(dp162
S'SOVIN3O'
p163
(dp164
g10
F0.0
sg11
I0
sg12
g163
sg13
F1.0
sssg14
F1.0
ssS'7391'
p165
(dp166
g3
F1.0
sg4
F50.0
sg5
I0
sg6
(dp167
S'DT'
p168
(dp169
g10
F50.0
sg11
F1.0
sg12
g20
sg13
F2.0
sssg14
F2.0
ssS'796459'
p170
(dp171
g3
F1.0
sg4
F100.0
sg5
I0
sg6
(dp172
S'SOVIN3O'
p173
(dp174
g10
F100.0
sg11
F1.0
sg12
g173
sg13
F1.0
sssg14
F1.0
ssS'78632'
p175
(dp176
g3
F1.0
sg4
F50.0
sg5
I0
sg6
(dp177
S'SI'
p178
(dp179
g10
F50.0
sg11
F1.0
sg12
g178
sg13
F2.0
sssg14
F2.0
ssS'73472'
p180
(dp181
g3
F1.0
sg4
F100.0
sg5
I0
sg6
(dp182
S'CAPIT'
p183
(dp184
g10
F100.0
sg11
F1.0
sg12
g183
sg13
F1.0
sssg14
F1.0
ssS'38044'
p185
(dp186
g3
F4.0
sg4
F100.0
sg5
I0
sg6
(dp187
S'SI'
p188
(dp189
g10
F100.0
sg11
F2.0
sg12
g188
sg13
F2.0
ssS'CAPIT'
p190
(dp191
g10
F100.0
sg11
F2.0
sg12
g190
sg13
F2.0
sssg14
F4.0
ssS'420'
p192
(dp193
g3
F1.0
sg4
F100.0
sg5
I0
sg6
(dp194
S'CAPIT'
p195
(dp196
g10
F100.0
sg11
F1.0
sg12
g195
sg13
F1.0
sssg14
F1.0
ssS'74012'
p197
(dp198
g3
F1.0
sg4
F100.0
sg5
I0
sg6
(dp199
S'DT'
p200
(dp201
g10
F100.0
sg11
F1.0
sg12
g20
sg13
F1.0
sssg14
F1.0
ssS'79031'
p202
(dp203
g3
F17.0
sg4
F73.91304347826086
sg5
I0
sg6
(dp204
S'SOVIN3O'
p205
(dp206
g10
F68.75
sg11
F11.0
sg12
g205
sg13
F16.0
ssS'MAKOM'
p207
(dp208
g10
F85.714285714285708
sg11
F6.0
sg12
g46
sg13
F7.0
sssg14
F23.0
ssS'79032'
p209
(dp210
g3
F10.0
sg4
F50.0
sg5
I0
sg6
(dp211
S'SOVIN3O'
p212
(dp213
g10
F41.666666666666671
sg11
F5.0
sg12
g212
sg13
F12.0
ssS'MAKOM'
p214
(dp215
g10
F62.5
sg11
F5.0
sg12
g46
sg13
F8.0
sssg14
F20.0
ssS'79035'
p216
(dp217
g3
F14.0
sg4
F63.636363636363633
sg5
I0
sg6
(dp218
S'SOVIN3O'
p219
(dp220
g10
F41.666666666666671
sg11
F5.0
sg12
g219
sg13
F12.0
ssS'4995570600'
p221
(dp222
g10
F100.0
sg11
F1.0
sg12
g221
sg13
F1.0
ssS'MAKOM'
p223
(dp224
g10
F88.888888888888886
sg11
F8.0
sg12
g46
sg13
F9.0
sssg14
F22.0
ssS'79037'
p225
(dp226
g3
F14.0
sg4
F70.0
sg5
I0
sg6
(dp227
S'SOVIN3O'
p228
(dp229
g10
F53.846153846153847
sg11
F7.0
sg12
g228
sg13
F13.0
ssS'MAKOM'
p230
(dp231
g10
F100.0
sg11
F7.0
sg12
g46
sg13
F7.0
sssg14
F20.0
ssS'372'
p232
(dp233
g3
F1.0
sg4
F100.0
sg5
I0
sg6
(dp234
S'CAPIT'
p235
(dp236
g10
F100.0
sg11
F1.0
sg12
g235
sg13
F1.0
sssg14
F1.0
ssS'7910002'
p237
(dp238
g3
I0
sg4
F0.0
sg5
I0
sg6
(dp239
S'MAKOM'
p240
(dp241
g10
F0.0
sg11
I0
sg12
g46
sg13
F1.0
sssg14
F1.0
ssS'79295'
p242
(dp243
g3
F3.0
sg4
F100.0
sg5
I0
sg6
(dp244
S'SOVIN3O'
p245
(dp246
g10
F100.0
sg11
F3.0
sg12
g245
sg13
F3.0
sssg14
F3.0
ssS'79296'
p247
(dp248
g3
F1.0
sg4
F100.0
sg5
I0
sg6
(dp249
S'SOVIN3O'
p250
(dp251
g10
F100.0
sg11
F1.0
sg12
g250
sg13
F1.0
sssg14
F1.0
ssS'7872'
p252
(dp253
g3
F1.0
sg4
F100.0
sg5
I0
sg6
(dp254
g8
(dp255
g10
F100.0
sg11
F1.0
sg12
g8
sg13
F1.0
sssg14
F1.0
ssS'787934'
p256
(dp257
g3
F1.0
sg4
F100.0
sg5
I0
sg6
(dp258
S'DT'
p259
(dp260
g10
F100.0
sg11
F1.0
sg12
g20
sg13
F1.0
sssg14
F1.0
ssS'781375'
p261
(dp262
g3
F2.0
sg4
F100.0
sg5
I0
sg6
(dp263
g30
(dp264
g10
F100.0
sg11
F2.0
sg12
g20
sg13
F2.0
sssg14
F2.0
ssS'86'
p265
(dp266
g3
F2.0
sg4
F100.0
sg5
I0
sg6
(dp267
S'SI'
p268
(dp269
g10
F100.0
sg11
F2.0
sg12
g268
sg13
F2.0
sssg14
F2.0
ssS'79299'
p270
(dp271
g3
F1.0
sg4
F50.0
sg5
I0
sg6
(dp272
S'SOVIN3O'
p273
(dp274
g10
F50.0
sg11
F1.0
sg12
g273
sg13
F2.0
sssg14
F2.0
ssS'781369'
p275
(dp276
g3
F1.0
sg4
F100.0
sg5
I0
sg6
(dp277
g28
(dp278
g10
F100.0
sg11
F1.0
sg12
g28
sg13
F1.0
sssg14
F1.0
ssS'79689'
p279
(dp280
g3
F1.0
sg4
F100.0
sg5
I0
sg6
(dp281
S'SOVIN3O'
p282
(dp283
g10
F100.0
sg11
F1.0
sg12
g282
sg13
F1.0
sssg14
F1.0
ssS'79688'
p284
(dp285
g3
F2.0
sg4
F100.0
sg5
I0
sg6
(dp286
S'SOVIN3O'
p287
(dp288
g10
F100.0
sg11
F1.0
sg12
g287
sg13
F1.0
ssS'MAKOM'
p289
(dp290
g10
F100.0
sg11
F1.0
sg12
g46
sg13
F1.0
sssg14
F2.0
ssS'79687'
p291
(dp292
g3
F2.0
sg4
F100.0
sg5
I0
sg6
(dp293
S'MAKOM'
p294
(dp295
g10
F100.0
sg11
F2.0
sg12
g46
sg13
F2.0
sssg14
F2.0
ssS'79686'
p296
(dp297
g3
F2.0
sg4
F66.666666666666657
sg5
I0
sg6
(dp298
S'SOVIN3O'
p299
(dp300
g10
F66.666666666666657
sg11
F2.0
sg12
g299
sg13
F3.0
sssg14
F3.0
ssS'796236'
p301
(dp302
g3
F1.0
sg4
F100.0
sg5
I0
sg6
(dp303
S'MAKOM'
p304
(dp305
g10
F100.0
sg11
F1.0
sg12
g46
sg13
F1.0
sssg14
F1.0
ssS'790301'
p306
(dp307
g3
F1.0
sg4
F100.0
sg5
I0
sg6
(dp308
S'4995570600'
p309
(dp310
g10
F100.0
sg11
F1.0
sg12
g309
sg13
F1.0
sssg14
F1.0
ssS'790300'
p311
(dp312
g3
F1.0
sg4
F100.0
sg5
I0
sg6
(dp313
S'SOVIN3O'
p314
(dp315
g10
F100.0
sg11
F1.0
sg12
g314
sg13
F1.0
sssg14
F1.0
ssS'74922'
p316
(dp317
g3
F3.0
sg4
F100.0
sg5
I0
sg6
(dp318
S'DT'
p319
(dp320
g10
F100.0
sg11
F3.0
sg12
g20
sg13
F3.0
sssg14
F3.0
ssS'7'
p321
(dp322
g3
F1168.0
sg4
F51.544571932921443
sg5
I160
sg6
(dp323
S'4956096888'
p324
(dp325
g10
F100.0
sg11
F5.0
sg12
g324
sg13
F5.0
ssS'4995570600'
p326
(dp327
g10
F24.719101123595504
sg11
F154.0
sg12
g326
sg13
F623.0
ssS'4995570648'
p328
(dp329
g10
F70.370370370370367
sg11
F19.0
sg12
g328
sg13
F27.0
ssS'4956096700'
p330
(dp331
g10
F75.0
sg11
F3.0
sg12
g330
sg13
F4.0
ssS'4957894542'
p332
(dp333
g10
F100.0
sg11
F3.0
sg12
g332
sg13
F3.0
ssS'4992710619'
p334
(dp335
g10
F100.0
sg11
F10.0
sg12
g334
sg13
F10.0
ssS'4952211810'
p336
(dp337
g10
F78.571428571428569
sg11
F11.0
sg12
g336
sg13
F14.0
ssg319
(dp338
g10
F72.941176470588232
sg11
F62.0
sg12
g20
sg13
F85.0
ssS'4956379097'
p339
(dp340
g10
F100.0
sg11
F18.0
sg12
g339
sg13
F18.0
ssS'CTELM'
p341
(dp342
g10
F92.307692307692307
sg11
F12.0
sg12
g341
sg13
F13.0
ssS'SOVIN3O'
p343
(dp344
g10
F61.702127659574465
sg11
F145.0
sg12
g343
sg13
F235.0
ssS'SI'
p345
(dp346
g10
F78.915662650602414
sg11
F262.0
sg12
g345
sg13
F332.0
ssS'MAST'
p347
(dp348
g10
F100.0
sg11
F1.0
sg12
g347
sg13
F1.0
ssS'4957894587'
p349
(dp350
g10
F60.0
sg11
F3.0
sg12
g349
sg13
F5.0
ssS'4956096090'
p351
(dp352
g10
F100.0
sg11
F5.0
sg12
g351
sg13
F5.0
ssS'4957873181'
p353
(dp354
g10
F100.0
sg11
F16.0
sg12
g353
sg13
F16.0
ssS'COMST'
p355
(dp356
g10
F68.924302788844628
sg11
F173.0
sg12
g111
sg13
F251.0
ssS'EKVA'
p357
(dp358
g10
F100.0
sg11
F2.0
sg12
S'\xd0\xad\xd0\xba\xd0\xb2\xd0\xb0\xd0\xbd\xd1\x82_FC'
p359
sg13
F2.0
ssS'4959264300'
p360
(dp361
g10
F100.0
sg11
F2.0
sg12
g360
sg13
F2.0
ssS'COUNT'
p362
(dp363
g10
F75.0
sg11
F3.0
sg12
S'\xd0\x9a\xd0\xb0\xd0\xbd\xd1\x82\xd1\x80\xd0\xb8\xd0\x9a\xd0\xbe\xd0\xbc \xd0\xbc\xd0\xb5\xd1\x81\xd1\x82\xd0\xbd\xd0\xb0\xd1\x8f'
p364
sg13
F4.0
ssS'4950000425'
p365
(dp366
g10
F75.0
sg11
F6.0
sg12
g365
sg13
F8.0
ssS'4950000438'
p367
(dp368
g10
F75.0
sg11
F3.0
sg12
g367
sg13
F4.0
ssS'4957894320'
p369
(dp370
g10
F100.0
sg11
F3.0
sg12
g369
sg13
F3.0
ssS'4950000434'
p371
(dp372
g10
F66.666666666666657
sg11
F4.0
sg12
g371
sg13
F6.0
ssS'4950000456'
p373
(dp374
g10
F75.0
sg11
F3.0
sg12
g373
sg13
F4.0
ssS'4950000455'
p375
(dp376
g10
F100.0
sg11
F5.0
sg12
g375
sg13
F5.0
ssS'4957894615'
p377
(dp378
g10
F100.0
sg11
F3.0
sg12
g377
sg13
F3.0
ssS'WCALL'
p379
(dp380
g10
F100.0
sg11
F3.0
sg12
S'\xd0\x92\xd0\xb5\xd1\x81\xd1\x82 \xd0\x9a\xd0\xbe\xd0\xbb\xd0\xbb'
p381
sg13
F3.0
ssS'4957894483'
p382
(dp383
g10
F100.0
sg11
F1.0
sg12
g382
sg13
F1.0
ssS'4957894433'
p384
(dp385
g10
F100.0
sg11
F6.0
sg12
g384
sg13
F6.0
ssS'4957894450'
p386
(dp387
g10
F50.0
sg11
F1.0
sg12
g386
sg13
F2.0
ssS'SI2'
p388
(dp389
g10
F16.666666666666664
sg11
F1.0
sg12
g388
sg13
F6.0
ssS'CAPIT'
p390
(dp391
g10
F51.5625
sg11
F33.0
sg12
g390
sg13
F64.0
ssS'MAKOM'
p392
(dp393
g10
F74.418604651162795
sg11
F128.0
sg12
g46
sg13
F172.0
ssS'4957883888'
p394
(dp395
g10
F95.652173913043484
sg11
F22.0
sg12
g394
sg13
F23.0
ssS'SOVIN'
p396
(dp397
g10
F76.923076923076934
sg11
F30.0
sg12
S'\xd0\x92\xd1\x8b\xd0\xbc\xd0\xbf\xd0\xb5\xd0\xbb\xd0\x9a\xd0\xbe\xd0\xbc \xd0\xb4\xd0\xbe\xd0\xb3.JF053'
p398
sg13
F39.0
ssS'4956096111'
p399
(dp400
g10
F2.197802197802198
sg11
F2.0
sg12
g399
sg13
F91.0
ssS'MTRX'
p401
(dp402
g10
F45.454545454545453
sg11
F5.0
sg12
S'\xd0\x9c\xd0\xb0\xd1\x82\xd1\x80\xd0\xb8\xd0\xba\xd1\x81 \xd0\xa2\xd0\xb5\xd0\xbb\xd0\xb5\xd0\xba\xd0\xbe\xd0\xbc \xd0\xb7\xd0\xbe\xd0\xbd\xd0\xb0-\xd0\xb7\xd0\xbe\xd0\xbd\xd0\xb0'
p403
sg13
F11.0
sssg14
F2266.0
ssS'796457'
p404
(dp405
g3
F1.0
sg4
F100.0
sg5
I0
sg6
(dp406
S'SOVIN3O'
p407
(dp408
g10
F100.0
sg11
F1.0
sg12
g407
sg13
F1.0
sssg14
F1.0
ssS'78432'
p409
(dp410
g3
F1.0
sg4
F100.0
sg5
I0
sg6
(dp411
S'DT'
p412
(dp413
g10
F100.0
sg11
F1.0
sg12
g20
sg13
F1.0
sssg14
F1.0
ssS'796452'
p414
(dp415
g3
F1.0
sg4
F33.333333333333329
sg5
I0
sg6
(dp416
S'SOVIN3O'
p417
(dp418
g10
F0.0
sg11
I0
sg12
g417
sg13
F1.0
ssS'MAKOM'
p419
(dp420
g10
F50.0
sg11
F1.0
sg12
g46
sg13
F2.0
sssg14
F3.0
ssS'796451'
p421
(dp422
g3
F1.0
sg4
F100.0
sg5
I0
sg6
(dp423
S'SOVIN3O'
p424
(dp425
g10
F100.0
sg11
F1.0
sg12
g424
sg13
F1.0
sssg14
F1.0
ssS'78612'
p426
(dp427
g3
F1.0
sg4
F50.0
sg5
I0
sg6
(dp428
S'SI'
p429
(dp430
g10
F50.0
sg11
F1.0
sg12
g429
sg13
F2.0
sssg14
F2.0
ssS'74852'
p431
(dp432
g3
F1.0
sg4
F100.0
sg5
I0
sg6
(dp433
S'SI'
p434
(dp435
g10
F100.0
sg11
F1.0
sg12
g434
sg13
F1.0
sssg14
F1.0
ssS'78617'
p436
(dp437
g3
F1.0
sg4
F100.0
sg5
I0
sg6
(dp438
S'DT'
p439
(dp440
g10
F100.0
sg11
F1.0
sg12
g20
sg13
F1.0
sssg14
F1.0
ssS'74732'
p441
(dp442
g3
F1.0
sg4
F14.285714285714285
sg5
I0
sg6
(dp443
S'CAPIT'
p444
(dp445
g10
F0.0
sg11
I0
sg12
g444
sg13
F3.0
ssS'DT'
p446
(dp447
g10
F25.0
sg11
F1.0
sg12
g20
sg13
F4.0
sssg14
F7.0
ssS'73512'
p448
(dp449
g3
F1.0
sg4
F100.0
sg5
I0
sg6
(dp450
S'DT'
p451
(dp452
g10
F100.0
sg11
F1.0
sg12
g20
sg13
F1.0
sssg14
F1.0
ssS'380'
p453
(dp454
g3
F6.0
sg4
F85.714285714285708
sg5
I0
sg6
(dp455
g188
(dp456
g10
F100.0
sg11
F2.0
sg12
g188
sg13
F2.0
ssg190
(dp457
g10
F80.0
sg11
F4.0
sg12
g190
sg13
F5.0
sssg14
F7.0
ssS'7863'
p458
(dp459
g3
F1.0
sg4
F50.0
sg5
I0
sg6
(dp460
g178
(dp461
g10
F50.0
sg11
F1.0
sg12
g178
sg13
F2.0
sssg14
F2.0
ssS'7861'
p462
(dp463
g3
F3.0
sg4
F75.0
sg5
I0
sg6
(dp464
g439
(dp465
g10
F100.0
sg11
F1.0
sg12
g20
sg13
F1.0
ssS'SI'
p466
(dp467
g10
F66.666666666666657
sg11
F2.0
sg12
g466
sg13
F3.0
sssg14
F4.0
ssS'790969'
p468
(dp469
g3
F4.0
sg4
F57.142857142857139
sg5
I0
sg6
(dp470
S'SOVIN3O'
p471
(dp472
g10
F50.0
sg11
F2.0
sg12
g471
sg13
F4.0
ssS'MAKOM'
p473
(dp474
g10
F66.666666666666657
sg11
F2.0
sg12
g46
sg13
F3.0
sssg14
F7.0
ssS'33'
p475
(dp476
g3
F1.0
sg4
F33.333333333333329
sg5
I0
sg6
(dp477
S'DT'
p478
(dp479
g10
F33.333333333333329
sg11
F1.0
sg12
g20
sg13
F3.0
sssg14
F3.0
ssS'790967'
p480
(dp481
g3
F1.0
sg4
F100.0
sg5
I0
sg6
(dp482
S'SOVIN3O'
p483
(dp484
g10
F100.0
sg11
F1.0
sg12
g483
sg13
F1.0
sssg14
F1.0
ssS'790966'
p485
(dp486
g3
F2.0
sg4
F100.0
sg5
I0
sg6
(dp487
S'SOVIN3O'
p488
(dp489
g10
F100.0
sg11
F1.0
sg12
g488
sg13
F1.0
ssS'MAKOM'
p490
(dp491
g10
F100.0
sg11
F1.0
sg12
g46
sg13
F1.0
sssg14
F2.0
ssS'796543'
p492
(dp493
g3
F1.0
sg4
F50.0
sg5
I0
sg6
(dp494
S'SOVIN3O'
p495
(dp496
g10
F50.0
sg11
F1.0
sg12
g495
sg13
F2.0
sssg14
F2.0
ssS'74932'
p497
(dp498
g3
F1.0
sg4
F33.333333333333329
sg5
I0
sg6
(dp499
S'SI'
p500
(dp501
g10
F100.0
sg11
F1.0
sg12
g500
sg13
F1.0
ssS'DT'
p502
(dp503
g10
F0.0
sg11
I0
sg12
g20
sg13
F2.0
sssg14
F3.0
ssS'781852'
p504
(dp505
g3
I0
sg4
F0.0
sg5
I0
sg6
(dp506
g50
(dp507
g10
F0.0
sg11
I0
sg12
g50
sg13
F2.0
sssg14
F2.0
ssS'73912'
p508
(dp509
g3
F1.0
sg4
F50.0
sg5
I0
sg6
(dp510
g168
(dp511
g10
F50.0
sg11
F1.0
sg12
g20
sg13
F2.0
sssg14
F2.0
ssS'79057'
p512
(dp513
g3
F10.0
sg4
F83.333333333333343
sg5
I0
sg6
(dp514
S'SOVIN3O'
p515
(dp516
g10
F80.0
sg11
F8.0
sg12
g515
sg13
F10.0
ssS'MAKOM'
p517
(dp518
g10
F100.0
sg11
F2.0
sg12
g46
sg13
F2.0
sssg14
F12.0
ssS'79055'
p519
(dp520
g3
F7.0
sg4
F77.777777777777786
sg5
I0
sg6
(dp521
S'SOVIN3O'
p522
(dp523
g10
F71.428571428571431
sg11
F5.0
sg12
g522
sg13
F7.0
ssS'MAKOM'
p524
(dp525
g10
F100.0
sg11
F2.0
sg12
g46
sg13
F2.0
sssg14
F9.0
ssS'78342'
p526
(dp527
g3
I0
sg4
F0.0
sg5
I0
sg6
(dp528
S'DT'
p529
(dp530
g10
F0.0
sg11
I0
sg12
g20
sg13
F1.0
sssg14
F1.0
ssS'79672'
p531
(dp532
g3
F2.0
sg4
F40.0
sg5
I0
sg6
(dp533
S'MAKOM'
p534
(dp535
g10
F40.0
sg11
F2.0
sg12
g46
sg13
F5.0
sssg14
F5.0
ssS'749644'
p536
(dp537
g3
F1.0
sg4
F100.0
sg5
I0
sg6
(dp538
S'DT'
p539
(dp540
g10
F100.0
sg11
F1.0
sg12
g20
sg13
F1.0
sssg14
F1.0
ssS'79671'
p541
(dp542
g3
F3.0
sg4
F75.0
sg5
I0
sg6
(dp543
S'SOVIN3O'
p544
(dp545
g10
F66.666666666666657
sg11
F2.0
sg12
g544
sg13
F3.0
ssS'MAKOM'
p546
(dp547
g10
F100.0
sg11
F1.0
sg12
g46
sg13
F1.0
sssg14
F4.0
ssS'74842'
p548
(dp549
g3
F4.0
sg4
F57.142857142857139
sg5
I0
sg6
(dp550
S'DT'
p551
(dp552
g10
F57.142857142857139
sg11
F4.0
sg12
g20
sg13
F7.0
sssg14
F7.0
ssS'7496'
p553
(dp554
g3
F1.0
sg4
F100.0
sg5
I0
sg6
(dp555
g539
(dp556
g10
F100.0
sg11
F1.0
sg12
g20
sg13
F1.0
sssg14
F1.0
ssS'7346'
p557
(dp558
g3
I0
sg4
F0.0
sg5
I0
sg6
(dp559
g390
(dp560
g10
F0.0
sg11
I0
sg12
g390
sg13
F1.0
sssg14
F1.0
ssS'7347'
p561
(dp562
g3
F1.0
sg4
F100.0
sg5
I0
sg6
(dp563
g183
(dp564
g10
F100.0
sg11
F1.0
sg12
g183
sg13
F1.0
sssg14
F1.0
ssS'7345'
p565
(dp566
g3
F2.0
sg4
F100.0
sg5
I0
sg6
(dp567
S'DT'
p568
(dp569
g10
F100.0
sg11
F1.0
sg12
g20
sg13
F1.0
ssS'4995570600'
p570
(dp571
g10
F100.0
sg11
F1.0
sg12
g570
sg13
F1.0
sssg14
F2.0
ssS'7342'
p572
(dp573
g3
I0
sg4
F0.0
sg5
I0
sg6
(dp574
g99
(dp575
g10
F0.0
sg11
I0
sg12
g20
sg13
F1.0
sssg14
F1.0
ssS'7343'
p576
(dp577
g3
F1.0
sg4
F100.0
sg5
I0
sg6
(dp578
S'CAPIT'
p579
(dp580
g10
F100.0
sg11
F1.0
sg12
g579
sg13
F1.0
sssg14
F1.0
ssS'7916'
p581
(dp582
g3
F55.0
sg4
F64.705882352941174
sg5
I1
sg6
(dp583
S'4995570600'
p584
(dp585
g10
F100.0
sg11
F1.0
sg12
g584
sg13
F1.0
ssS'SI2'
p586
(dp587
g10
F100.0
sg11
F1.0
sg12
g586
sg13
F1.0
ssg355
(dp588
g10
F57.142857142857139
sg11
F16.0
sg12
g111
sg13
F28.0
ssS'MAKOM'
p589
(dp590
g10
F68.518518518518519
sg11
F37.0
sg12
g46
sg13
F54.0
sssg14
F85.0
ssS'7499'
p591
(dp592
g3
F65.0
sg4
F69.148936170212778
sg5
I0
sg6
(dp593
S'COUNT'
p594
(dp595
g10
F100.0
sg11
F1.0
sg12
g364
sg13
F1.0
ssS'CTELM'
p596
(dp597
g10
F100.0
sg11
F3.0
sg12
g596
sg13
F3.0
ssS'SI'
p598
(dp599
g10
F70.454545454545453
sg11
F31.0
sg12
g598
sg13
F44.0
ssg396
(dp600
g10
F57.142857142857139
sg11
F8.0
sg12
g398
sg13
F14.0
ssg334
(dp601
g10
F100.0
sg11
F10.0
sg12
g334
sg13
F10.0
ssS'COMST'
p602
(dp603
g10
F54.54545454545454
sg11
F12.0
sg12
g111
sg13
F22.0
sssg14
F94.0
ssS'7492'
p604
(dp605
g3
F3.0
sg4
F100.0
sg5
I0
sg6
(dp606
g319
(dp607
g10
F100.0
sg11
F3.0
sg12
g20
sg13
F3.0
sssg14
F3.0
ssS'7493'
p608
(dp609
g3
F1.0
sg4
F33.333333333333329
sg5
I0
sg6
(dp610
g500
(dp611
g10
F100.0
sg11
F1.0
sg12
g500
sg13
F1.0
ssg502
(dp612
g10
F0.0
sg11
I0
sg12
g20
sg13
F2.0
sssg14
F3.0
ssS'79104'
p613
(dp614
g3
F6.0
sg4
F66.666666666666657
sg5
I0
sg6
(dp615
S'SI'
p616
(dp617
g10
F66.666666666666657
sg11
F2.0
sg12
g616
sg13
F3.0
ssS'MAKOM'
p618
(dp619
g10
F66.666666666666657
sg11
F4.0
sg12
g46
sg13
F6.0
sssg14
F9.0
ssS'7494'
p620
(dp621
g3
F1.0
sg4
F100.0
sg5
I0
sg6
(dp622
S'DT'
p623
(dp624
g10
F100.0
sg11
F1.0
sg12
g20
sg13
F1.0
sssg14
F1.0
ssS'7495'
p625
(dp626
g3
F625.0
sg4
F46.921921921921921
sg5
I159
sg6
(dp627
g324
(dp628
g10
F100.0
sg11
F5.0
sg12
g324
sg13
F5.0
ssS'4995570600'
p629
(dp630
g10
F24.541284403669724
sg11
F107.0
sg12
g629
sg13
F436.0
ssg328
(dp631
g10
F68.0
sg11
F17.0
sg12
g328
sg13
F25.0
ssg330
(dp632
g10
F75.0
sg11
F3.0
sg12
g330
sg13
F4.0
ssg332
(dp633
g10
F100.0
sg11
F3.0
sg12
g332
sg13
F3.0
ssg351
(dp634
g10
F100.0
sg11
F5.0
sg12
g351
sg13
F5.0
ssg336
(dp635
g10
F78.571428571428569
sg11
F11.0
sg12
g336
sg13
F14.0
ssS'DT'
p636
(dp637
g10
F85.294117647058826
sg11
F29.0
sg12
g20
sg13
F34.0
ssg339
(dp638
g10
F100.0
sg11
F18.0
sg12
g339
sg13
F18.0
ssg341
(dp639
g10
F90.0
sg11
F9.0
sg12
g341
sg13
F10.0
ssS'SI'
p640
(dp641
g10
F84.507042253521121
sg11
F180.0
sg12
g640
sg13
F213.0
ssg347
(dp642
g10
F100.0
sg11
F1.0
sg12
g347
sg13
F1.0
ssg349
(dp643
g10
F60.0
sg11
F3.0
sg12
g349
sg13
F5.0
ssg353
(dp644
g10
F100.0
sg11
F16.0
sg12
g353
sg13
F16.0
ssS'COMST'
p645
(dp646
g10
F72.781065088757401
sg11
F123.0
sg12
g111
sg13
F169.0
ssg357
(dp647
g10
F100.0
sg11
F2.0
sg12
g359
sg13
F2.0
ssg360
(dp648
g10
F100.0
sg11
F2.0
sg12
g360
sg13
F2.0
ssg362
(dp649
g10
F66.666666666666657
sg11
F2.0
sg12
g364
sg13
F3.0
ssg365
(dp650
g10
F75.0
sg11
F6.0
sg12
g365
sg13
F8.0
ssg367
(dp651
g10
F75.0
sg11
F3.0
sg12
g367
sg13
F4.0
ssg369
(dp652
g10
F100.0
sg11
F3.0
sg12
g369
sg13
F3.0
ssg371
(dp653
g10
F66.666666666666657
sg11
F4.0
sg12
g371
sg13
F6.0
ssg373
(dp654
g10
F75.0
sg11
F3.0
sg12
g373
sg13
F4.0
ssg375
(dp655
g10
F100.0
sg11
F5.0
sg12
g375
sg13
F5.0
ssg377
(dp656
g10
F100.0
sg11
F3.0
sg12
g377
sg13
F3.0
ssg379
(dp657
g10
F100.0
sg11
F3.0
sg12
g381
sg13
F3.0
ssg382
(dp658
g10
F100.0
sg11
F1.0
sg12
g382
sg13
F1.0
ssg384
(dp659
g10
F100.0
sg11
F6.0
sg12
g384
sg13
F6.0
ssg386
(dp660
g10
F50.0
sg11
F1.0
sg12
g386
sg13
F2.0
ssg388
(dp661
g10
F0.0
sg11
I0
sg12
g388
sg13
F5.0
ssS'CAPIT'
p662
(dp663
g10
F0.0
sg11
I0
sg12
g662
sg13
F7.0
ssS'MAKOM'
p664
(dp665
g10
F0.0
sg11
I0
sg12
g46
sg13
F1.0
ssg394
(dp666
g10
F95.652173913043484
sg11
F22.0
sg12
g394
sg13
F23.0
ssS'SOVIN'
p667
(dp668
g10
F88.0
sg11
F22.0
sg12
g398
sg13
F25.0
ssg399
(dp669
g10
F2.197802197802198
sg11
F2.0
sg12
g399
sg13
F91.0
ssg401
(dp670
g10
F45.454545454545453
sg11
F5.0
sg12
g403
sg13
F11.0
sssg14
F1332.0
ssS'731'
p671
(dp672
g3
F1.0
sg4
F16.666666666666664
sg5
I0
sg6
(dp673
S'4995570600'
p674
(dp675
g10
F16.666666666666664
sg11
F1.0
sg12
g674
sg13
F6.0
sssg14
F6.0
ssS'73452'
p676
(dp677
g3
F2.0
sg4
F100.0
sg5
I0
sg6
(dp678
g568
(dp679
g10
F100.0
sg11
F1.0
sg12
g20
sg13
F1.0
ssg570
(dp680
g10
F100.0
sg11
F1.0
sg12
g570
sg13
F1.0
sssg14
F2.0
ssS'7985'
p681
(dp682
g3
F18.0
sg4
F75.0
sg5
I0
sg6
(dp683
S'4995570600'
p684
(dp685
g10
F100.0
sg11
F1.0
sg12
g684
sg13
F1.0
ssS'COMST'
p686
(dp687
g10
F72.727272727272734
sg11
F8.0
sg12
g111
sg13
F11.0
ssS'MAKOM'
p688
(dp689
g10
F75.0
sg11
F9.0
sg12
g46
sg13
F12.0
sssg14
F24.0
ssS'79060'
p690
(dp691
g3
F8.0
sg4
F61.53846153846154
sg5
I0
sg6
(dp692
S'SOVIN3O'
p693
(dp694
g10
F37.5
sg11
F3.0
sg12
g693
sg13
F8.0
ssS'MAKOM'
p695
(dp696
g10
F100.0
sg11
F5.0
sg12
g46
sg13
F5.0
sssg14
F13.0
ssS'78352'
p697
(dp698
g3
F3.0
sg4
F75.0
sg5
I0
sg6
(dp699
S'CAPIT'
p700
(dp701
g10
F0.0
sg11
I0
sg12
g700
sg13
F1.0
ssS'SI'
p702
(dp703
g10
F100.0
sg11
F3.0
sg12
g702
sg13
F3.0
sssg14
F4.0
ssS'7926'
p704
(dp705
g3
F58.0
sg4
F65.168539325842701
sg5
I0
sg6
(dp706
g343
(dp707
g10
F60.377358490566039
sg11
F32.0
sg12
g343
sg13
F53.0
ssS'SI'
p708
(dp709
g10
F70.588235294117652
sg11
F24.0
sg12
g708
sg13
F34.0
ssS'4995570600'
p710
(dp711
g10
F100.0
sg11
F2.0
sg12
g710
sg13
F2.0
sssg14
F89.0
ssS'73432'
p712
(dp713
g3
F1.0
sg4
F100.0
sg5
I0
sg6
(dp714
g579
(dp715
g10
F100.0
sg11
F1.0
sg12
g579
sg13
F1.0
sssg14
F1.0
ssS'74964'
p716
(dp717
g3
F1.0
sg4
F100.0
sg5
I0
sg6
(dp718
g539
(dp719
g10
F100.0
sg11
F1.0
sg12
g20
sg13
F1.0
sssg14
F1.0
ssS'7351'
p720
(dp721
g3
F1.0
sg4
F100.0
sg5
I0
sg6
(dp722
g451
(dp723
g10
F100.0
sg11
F1.0
sg12
g20
sg13
F1.0
sssg14
F1.0
ssS'7484'
p724
(dp725
g3
F6.0
sg4
F66.666666666666657
sg5
I0
sg6
(dp726
g551
(dp727
g10
F66.666666666666657
sg11
F6.0
sg12
g20
sg13
F9.0
sssg14
F9.0
ssS'7487'
p728
(dp729
g3
I0
sg4
F0.0
sg5
I0
sg6
(dp730
S'CAPIT'
p731
(dp732
g10
F0.0
sg11
I0
sg12
g731
sg13
F1.0
sssg14
F1.0
ssS'7352'
p733
(dp734
g3
F3.0
sg4
F75.0
sg5
I0
sg6
(dp735
S'DT'
p736
(dp737
g10
F100.0
sg11
F3.0
sg12
g20
sg13
F3.0
ssS'4995570600'
p738
(dp739
g10
F0.0
sg11
I0
sg12
g738
sg13
F1.0
sssg14
F4.0
ssS'7481'
p740
(dp741
g3
I0
sg4
F0.0
sg5
I0
sg6
(dp742
S'CAPIT'
p743
(dp744
g10
F0.0
sg11
I0
sg12
g743
sg13
F1.0
sssg14
F1.0
ssS'791999'
p745
(dp746
g3
F1.0
sg4
F100.0
sg5
I0
sg6
(dp747
S'MAKOM'
p748
(dp749
g10
F100.0
sg11
F1.0
sg12
g46
sg13
F1.0
sssg14
F1.0
ssS'7483'
p750
(dp751
g3
F2.0
sg4
F66.666666666666657
sg5
I0
sg6
(dp752
g158
(dp753
g10
F66.666666666666657
sg11
F2.0
sg12
g158
sg13
F3.0
sssg14
F3.0
ssS'796520'
p754
(dp755
g3
F1.0
sg4
F100.0
sg5
I0
sg6
(dp756
S'MAKOM'
p757
(dp758
g10
F100.0
sg11
F1.0
sg12
g46
sg13
F1.0
sssg14
F1.0
ssS'7845'
p759
(dp760
g3
F2.0
sg4
F66.666666666666657
sg5
I0
sg6
(dp761
S'CAPIT'
p762
(dp763
g10
F66.666666666666657
sg11
F2.0
sg12
g762
sg13
F3.0
sssg14
F3.0
ssS'7846'
p764
(dp765
g3
F1.0
sg4
F100.0
sg5
I0
sg6
(dp766
S'CAPIT'
p767
(dp768
g10
F100.0
sg11
F1.0
sg12
g767
sg13
F1.0
sssg14
F1.0
ssS'7843'
p769
(dp770
g3
F1.0
sg4
F100.0
sg5
I0
sg6
(dp771
g412
(dp772
g10
F100.0
sg11
F1.0
sg12
g20
sg13
F1.0
sssg14
F1.0
ssS'73823'
p773
(dp774
g3
F2.0
sg4
F100.0
sg5
I0
sg6
(dp775
g55
(dp776
g10
F100.0
sg11
F2.0
sg12
g55
sg13
F2.0
sssg14
F2.0
ssS'967'
p777
(dp778
g3
I0
sg4
F0.0
sg5
I0
sg6
(dp779
S'COMST'
p780
(dp781
g10
F0.0
sg11
I0
sg12
g111
sg13
F1.0
sssg14
F1.0
ssS'79067'
p782
(dp783
g3
F9.0
sg4
F60.0
sg5
I0
sg6
(dp784
S'SOVIN3O'
p785
(dp786
g10
F63.636363636363633
sg11
F7.0
sg12
g785
sg13
F11.0
ssS'MAKOM'
p787
(dp788
g10
F50.0
sg11
F2.0
sg12
g46
sg13
F4.0
sssg14
F15.0
ssS'7910000'
p789
(dp790
g3
F2.0
sg4
F100.0
sg5
I0
sg6
(dp791
S'COMST'
p792
(dp793
g10
F100.0
sg11
F2.0
sg12
g111
sg13
F2.0
sssg14
F2.0
ssS'790965'
p794
(dp795
g3
F1.0
sg4
F100.0
sg5
I0
sg6
(dp796
S'MAKOM'
p797
(dp798
g10
F100.0
sg11
F1.0
sg12
g46
sg13
F1.0
sssg14
F1.0
ssS'7925304'
p799
(dp800
g3
I0
sg4
F0.0
sg5
I0
sg6
(dp801
S'SOVIN3O'
p802
(dp803
g10
F0.0
sg11
I0
sg12
g802
sg13
F1.0
sssg14
F1.0
ssS'79175'
p804
(dp805
g3
F2.0
sg4
F40.0
sg5
I0
sg6
(dp806
S'COMST'
p807
(dp808
g10
F50.0
sg11
F2.0
sg12
g111
sg13
F4.0
ssS'MAKOM'
p809
(dp810
g10
F0.0
sg11
I0
sg12
g46
sg13
F1.0
sssg14
F5.0
ssS'7401'
p811
(dp812
g3
F1.0
sg4
F33.333333333333329
sg5
I0
sg6
(dp813
S'DT'
p814
(dp815
g10
F33.333333333333329
sg11
F1.0
sg12
g20
sg13
F3.0
sssg14
F3.0
ssS'74712'
p816
(dp817
g3
F4.0
sg4
F100.0
sg5
I0
sg6
(dp818
S'CAPIT'
p819
(dp820
g10
F100.0
sg11
F1.0
sg12
g819
sg13
F1.0
ssS'DT'
p821
(dp822
g10
F100.0
sg11
F2.0
sg12
g20
sg13
F2.0
ssS'SI'
p823
(dp824
g10
F100.0
sg11
F1.0
sg12
g823
sg13
F1.0
sssg14
F4.0
ssS'79099'
p825
(dp826
g3
F9.0
sg4
F75.0
sg5
I0
sg6
(dp827
S'SOVIN3O'
p828
(dp829
g10
F83.333333333333343
sg11
F5.0
sg12
g828
sg13
F6.0
ssg392
(dp830
g10
F66.666666666666657
sg11
F4.0
sg12
g46
sg13
F6.0
sssg14
F12.0
ssS'7800'
p831
(dp832
g3
F1.0
sg4
F100.0
sg5
I0
sg6
(dp833
S'SI'
p834
(dp835
g10
F100.0
sg11
F1.0
sg12
g834
sg13
F1.0
sssg14
F1.0
ssS'79651'
p836
(dp837
g3
F4.0
sg4
F100.0
sg5
I0
sg6
(dp838
S'SOVIN3O'
p839
(dp840
g10
F100.0
sg11
F4.0
sg12
g839
sg13
F4.0
sssg14
F4.0
ssS'79652'
p841
(dp842
g3
F3.0
sg4
F75.0
sg5
I0
sg6
(dp843
g94
(dp844
g10
F100.0
sg11
F2.0
sg12
g94
sg13
F2.0
ssg757
(dp845
g10
F50.0
sg11
F1.0
sg12
g46
sg13
F2.0
sssg14
F4.0
ssS'79653'
p846
(dp847
g3
F5.0
sg4
F83.333333333333343
sg5
I0
sg6
(dp848
S'SOVIN3O'
p849
(dp850
g10
F66.666666666666657
sg11
F2.0
sg12
g849
sg13
F3.0
ssS'MAKOM'
p851
(dp852
g10
F100.0
sg11
F3.0
sg12
g46
sg13
F3.0
sssg14
F6.0
ssS'7925424'
p853
(dp854
g3
I0
sg4
F0.0
sg5
I0
sg6
(dp855
S'SOVIN3O'
p856
(dp857
g10
F0.0
sg11
I0
sg12
g856
sg13
F1.0
sssg14
F1.0
ssS'7831'
p858
(dp859
g3
F1.0
sg4
F100.0
sg5
I0
sg6
(dp860
S'SI'
p861
(dp862
g10
F100.0
sg11
F1.0
sg12
g861
sg13
F1.0
sssg14
F1.0
ssS'7834'
p863
(dp864
g3
I0
sg4
F0.0
sg5
I0
sg6
(dp865
g529
(dp866
g10
F0.0
sg11
I0
sg12
g20
sg13
F1.0
sssg14
F1.0
ssS'7835'
p867
(dp868
g3
F3.0
sg4
F75.0
sg5
I0
sg6
(dp869
g700
(dp870
g10
F0.0
sg11
I0
sg12
g700
sg13
F1.0
ssg702
(dp871
g10
F100.0
sg11
F3.0
sg12
g702
sg13
F3.0
sssg14
F4.0
ssS'79250'
p872
(dp873
g3
F1.0
sg4
F20.0
sg5
I0
sg6
(dp874
S'SOVIN3O'
p875
(dp876
g10
F20.0
sg11
F1.0
sg12
g875
sg13
F5.0
sssg14
F5.0
ssS'796396'
p877
(dp878
g3
F1.0
sg4
F100.0
sg5
I0
sg6
(dp879
S'SOVIN3O'
p880
(dp881
g10
F100.0
sg11
F1.0
sg12
g880
sg13
F1.0
sssg14
F1.0
ssS'48'
p882
(dp883
g3
F1.0
sg4
F100.0
sg5
I0
sg6
(dp884
S'SI'
p885
(dp886
g10
F100.0
sg11
F1.0
sg12
g885
sg13
F1.0
sssg14
F1.0
ssS'49'
p887
(dp888
g3
F3.0
sg4
F37.5
sg5
I0
sg6
(dp889
S'SI2'
p890
(dp891
g10
F37.5
sg11
F3.0
sg12
g890
sg13
F8.0
sssg14
F8.0
ssS'79258'
p892
(dp893
g3
I0
sg4
F0.0
sg5
I0
sg6
(dp894
S'SOVIN3O'
p895
(dp896
g10
F0.0
sg11
I0
sg12
g895
sg13
F2.0
sssg14
F2.0
ssS'47'
p897
(dp898
g3
I0
sg4
F0.0
sg5
I0
sg6
(dp899
S'4995570600'
p900
(dp901
g10
F0.0
sg11
I0
sg12
g900
sg13
F1.0
sssg14
F1.0
ssS'44'
p902
(dp903
g3
F5.0
sg4
F100.0
sg5
I0
sg6
(dp904
S'SI2'
p905
(dp906
g10
F100.0
sg11
F4.0
sg12
g905
sg13
F4.0
ssS'SI'
p907
(dp908
g10
F100.0
sg11
F1.0
sg12
g907
sg13
F1.0
sssg14
F5.0
ssS'40'
p909
(dp910
g3
F1.0
sg4
F100.0
sg5
I0
sg6
(dp911
S'4995570600'
p912
(dp913
g10
F100.0
sg11
F1.0
sg12
g912
sg13
F1.0
sssg14
F1.0
ssS'7879'
p914
(dp915
g3
F1.0
sg4
F100.0
sg5
I0
sg6
(dp916
g259
(dp917
g10
F100.0
sg11
F1.0
sg12
g20
sg13
F1.0
sssg14
F1.0
ssS'1'
p918
(dp919
g3
F2.0
sg4
F100.0
sg5
I0
sg6
(dp920
S'SI2'
p921
(dp922
g10
F100.0
sg11
F2.0
sg12
g921
sg13
F2.0
sssg14
F2.0
ssS'7471'
p923
(dp924
g3
F4.0
sg4
F100.0
sg5
I0
sg6
(dp925
g819
(dp926
g10
F100.0
sg11
F1.0
sg12
g819
sg13
F1.0
ssg821
(dp927
g10
F100.0
sg11
F2.0
sg12
g20
sg13
F2.0
ssg823
(dp928
g10
F100.0
sg11
F1.0
sg12
g823
sg13
F1.0
sssg14
F4.0
ssS'7472'
p929
(dp930
g3
F3.0
sg4
F60.0
sg5
I0
sg6
(dp931
S'CAPIT'
p932
(dp933
g10
F50.0
sg11
F2.0
sg12
g932
sg13
F4.0
ssS'DT'
p934
(dp935
g10
F100.0
sg11
F1.0
sg12
g20
sg13
F1.0
sssg14
F5.0
ssS'7473'
p936
(dp937
g3
F1.0
sg4
F14.285714285714285
sg5
I0
sg6
(dp938
g444
(dp939
g10
F0.0
sg11
I0
sg12
g444
sg13
F3.0
ssg446
(dp940
g10
F25.0
sg11
F1.0
sg12
g20
sg13
F4.0
sssg14
F7.0
ssS'7474'
p941
(dp942
g3
F2.0
sg4
F40.0
sg5
I0
sg6
(dp943
S'DT'
p944
(dp945
g10
F40.0
sg11
F2.0
sg12
g20
sg13
F5.0
sssg14
F5.0
ssS'79629'
p946
(dp947
g3
F9.0
sg4
F90.0
sg5
I0
sg6
(dp948
S'SOVIN3O'
p949
(dp950
g10
F100.0
sg11
F5.0
sg12
g949
sg13
F5.0
ssS'MAKOM'
p951
(dp952
g10
F80.0
sg11
F4.0
sg12
g46
sg13
F5.0
sssg14
F10.0
ssS'74812'
p953
(dp954
g3
I0
sg4
F0.0
sg5
I0
sg6
(dp955
g743
(dp956
g10
F0.0
sg11
I0
sg12
g743
sg13
F1.0
sssg14
F1.0
ssS'74942'
p957
(dp958
g3
F1.0
sg4
F100.0
sg5
I0
sg6
(dp959
g623
(dp960
g10
F100.0
sg11
F1.0
sg12
g20
sg13
F1.0
sssg14
F1.0
ssS'7485'
p961
(dp962
g3
F1.0
sg4
F100.0
sg5
I0
sg6
(dp963
g434
(dp964
g10
F100.0
sg11
F1.0
sg12
g434
sg13
F1.0
sssg14
F1.0
ssS'792518'
p965
(dp966
g3
I0
sg4
F0.0
sg5
I0
sg6
(dp967
S'SOVIN3O'
p968
(dp969
g10
F0.0
sg11
I0
sg12
g968
sg13
F1.0
sssg14
F1.0
ssS'792514'
p970
(dp971
g3
F1.0
sg4
F100.0
sg5
I0
sg6
(dp972
S'SOVIN3O'
p973
(dp974
g10
F100.0
sg11
F1.0
sg12
g973
sg13
F1.0
sssg14
F1.0
ssS'796527'
p975
(dp976
g3
I0
sg4
F0.0
sg5
I0
sg6
(dp977
S'MAKOM'
p978
(dp979
g10
F0.0
sg11
I0
sg12
g46
sg13
F1.0
sssg14
F1.0
ssS'800'
p980
(dp981
g3
F1.0
sg4
F100.0
sg5
I0
sg6
(dp982
S'SI2'
p983
(dp984
g10
F100.0
sg11
F1.0
sg12
g983
sg13
F1.0
sssg14
F1.0
ssS'79015'
p985
(dp986
g3
F1.0
sg4
F50.0
sg5
I0
sg6
(dp987
S'SOVIN3O'
p988
(dp989
g10
F50.0
sg11
F1.0
sg12
g988
sg13
F2.0
sssg14
F2.0
ssS'796525'
p990
(dp991
g3
F1.0
sg4
F100.0
sg5
I0
sg6
(dp992
S'SOVIN3O'
p993
(dp994
g10
F100.0
sg11
F1.0
sg12
g993
sg13
F1.0
sssg14
F1.0
ssS'7925245'
p995
(dp996
g3
F1.0
sg4
F100.0
sg5
I0
sg6
(dp997
S'SOVIN3O'
p998
(dp999
g10
F100.0
sg11
F1.0
sg12
g998
sg13
F1.0
sssg14
F1.0
ssS'73522'
p1000
(dp1001
g3
F3.0
sg4
F100.0
sg5
I0
sg6
(dp1002
g736
(dp1003
g10
F100.0
sg11
F3.0
sg12
g20
sg13
F3.0
sssg14
F3.0
ssS'7486'
p1004
(dp1005
g3
F2.0
sg4
F66.666666666666657
sg5
I0
sg6
(dp1006
S'CAPIT'
p1007
(dp1008
g10
F66.666666666666657
sg11
F2.0
sg12
g1007
sg13
F3.0
sssg14
F3.0
ssS'796463'
p1009
(dp1010
g3
F1.0
sg4
F100.0
sg5
I0
sg6
(dp1011
S'SOVIN3O'
p1012
(dp1013
g10
F100.0
sg11
F1.0
sg12
g1012
sg13
F1.0
sssg14
F1.0
ssS'79153'
p1014
(dp1015
g3
F6.0
sg4
F66.666666666666657
sg5
I0
sg6
(dp1016
S'COMST'
p1017
(dp1018
g10
F62.5
sg11
F5.0
sg12
g111
sg13
F8.0
ssS'MAKOM'
p1019
(dp1020
g10
F100.0
sg11
F1.0
sg12
g46
sg13
F1.0
sssg14
F9.0
ssS'79152'
p1021
(dp1022
g3
F1.0
sg4
F100.0
sg5
I0
sg6
(dp1023
S'COMST'
p1024
(dp1025
g10
F100.0
sg11
F1.0
sg12
g111
sg13
F1.0
sssg14
F1.0
ssS'79151'
p1026
(dp1027
g3
F2.0
sg4
F100.0
sg5
I0
sg6
(dp1028
S'MAKOM'
p1029
(dp1030
g10
F100.0
sg11
F2.0
sg12
g46
sg13
F2.0
sssg14
F2.0
ssS'79150'
p1031
(dp1032
g3
F3.0
sg4
F75.0
sg5
I0
sg6
(dp1033
S'COMST'
p1034
(dp1035
g10
F100.0
sg11
F2.0
sg12
g111
sg13
F2.0
ssS'MAKOM'
p1036
(dp1037
g10
F50.0
sg11
F1.0
sg12
g46
sg13
F2.0
sssg14
F4.0
ssS'79154'
p1038
(dp1039
g3
F4.0
sg4
F66.666666666666657
sg5
I0
sg6
(dp1040
S'COMST'
p1041
(dp1042
g10
F66.666666666666657
sg11
F2.0
sg12
g111
sg13
F3.0
ssS'MAKOM'
p1043
(dp1044
g10
F66.666666666666657
sg11
F2.0
sg12
g46
sg13
F3.0
sssg14
F6.0
ss.