(dp0
S'7816'
p1
(dp2
S'suc_calls'
p3
F1.0
sS'asr'
p4
F100.0
sS'without_tg'
p5
I0
sS'trunks'
p6
(dp7
S'CAPIT'
p8
(dp9
S'tg_asr'
p10
F100.0
sS'tg_suc_calls'
p11
F1.0
sS'tg_name'
p12
g8
sS'tg_calls'
p13
F1.0
sssS'calls'
p14
F1.0
ssS'7812'
p15
(dp16
g3
F3.0
sg4
F50.0
sg5
I0
sg6
(dp17
S'SI'
p18
(dp19
g10
F25.0
sg11
F1.0
sg12
g18
sg13
F4.0
ssS'CAPIT'
p20
(dp21
g10
F100.0
sg11
F1.0
sg12
g20
sg13
F1.0
ssS'DT'
p22
(dp23
g10
F100.0
sg11
F1.0
sg12
S'\xd0\x94\xd0\xbe\xd0\xb9\xd1\x87\xd0\xb5 \xd0\xa2\xd0\xb5\xd0\xbb\xd0\xb5\xd0\xba\xd0\xbe\xd0\xbc premium'
p24
sg13
F1.0
sssg14
F6.0
ssS'79636'
p25
(dp26
g3
F4.0
sg4
F100.0
sg5
I0
sg6
(dp27
S'SOVIN3O'
p28
(dp29
g10
F100.0
sg11
F4.0
sg12
g28
sg13
F4.0
sssg14
F4.0
ssS'739555'
p30
(dp31
g3
F2.0
sg4
F100.0
sg5
I0
sg6
(dp32
S'CAPIT'
p33
(dp34
g10
F100.0
sg11
F2.0
sg12
g33
sg13
F2.0
sssg14
F2.0
ssS'7383'
p35
(dp36
g3
F1.0
sg4
F100.0
sg5
I0
sg6
(dp37
S'SI'
p38
(dp39
g10
F100.0
sg11
F1.0
sg12
g38
sg13
F1.0
sssg14
F1.0
ssS'790916'
p40
(dp41
g3
F2.0
sg4
F100.0
sg5
I0
sg6
(dp42
S'SOVIN3O'
p43
(dp44
g10
F100.0
sg11
F2.0
sg12
g43
sg13
F2.0
sssg14
F2.0
ssS'790396'
p45
(dp46
g3
F4.0
sg4
F100.0
sg5
I0
sg6
(dp47
S'SOVIN3O'
p48
(dp49
g10
F100.0
sg11
F3.0
sg12
g48
sg13
F3.0
ssS'MAKOM'
p50
(dp51
g10
F100.0
sg11
F1.0
sg12
S'\xd0\x9c\xd0\xb0\xd0\xba\xd0\xbe\xd0\xbc\xd0\xbd\xd0\xb5\xd1\x82'
p52
sg13
F1.0
sssg14
F4.0
ssS'790397'
p53
(dp54
g3
F1.0
sg4
F100.0
sg5
I0
sg6
(dp55
S'MAKOM'
p56
(dp57
g10
F100.0
sg11
F1.0
sg12
g52
sg13
F1.0
sssg14
F1.0
ssS'7302'
p58
(dp59
g3
F1.0
sg4
F100.0
sg5
I0
sg6
(dp60
S'SI'
p61
(dp62
g10
F100.0
sg11
F1.0
sg12
g61
sg13
F1.0
sssg14
F1.0
ssS'73022'
p63
(dp64
g3
F1.0
sg4
F100.0
sg5
I0
sg6
(dp65
g61
(dp66
g10
F100.0
sg11
F1.0
sg12
g61
sg13
F1.0
sssg14
F1.0
ssS'7486'
p67
(dp68
g3
F3.0
sg4
F60.0
sg5
I0
sg6
(dp69
S'CAPIT'
p70
(dp71
g10
F66.666666666666657
sg11
F2.0
sg12
g70
sg13
F3.0
ssS'DT'
p72
(dp73
g10
F50.0
sg11
F1.0
sg12
g24
sg13
F2.0
sssg14
F5.0
ssS'73422'
p74
(dp75
g3
F1.0
sg4
F20.0
sg5
I0
sg6
(dp76
S'DT'
p77
(dp78
g10
F100.0
sg11
F1.0
sg12
g24
sg13
F1.0
ssS'CAPIT'
p79
(dp80
g10
F0.0
sg11
I0
sg12
g79
sg13
F4.0
sssg14
F5.0
ssS'796371'
p81
(dp82
g3
F2.0
sg4
F100.0
sg5
I0
sg6
(dp83
S'SOVIN3O'
p84
(dp85
g10
F100.0
sg11
F1.0
sg12
g84
sg13
F1.0
ssS'MAKOM'
p86
(dp87
g10
F100.0
sg11
F1.0
sg12
g52
sg13
F1.0
sssg14
F2.0
ssS'790367'
p88
(dp89
g3
F1.0
sg4
F100.0
sg5
I0
sg6
(dp90
S'MAKOM'
p91
(dp92
g10
F100.0
sg11
F1.0
sg12
g52
sg13
F1.0
sssg14
F1.0
ssS'790366'
p93
(dp94
g3
F1.0
sg4
F50.0
sg5
I0
sg6
(dp95
S'MAKOM'
p96
(dp97
g10
F50.0
sg11
F1.0
sg12
g52
sg13
F2.0
sssg14
F2.0
ssS'796471'
p98
(dp99
g3
F2.0
sg4
F66.666666666666657
sg5
I0
sg6
(dp100
S'SOVIN3O'
p101
(dp102
g10
F50.0
sg11
F1.0
sg12
g101
sg13
F2.0
ssS'MAKOM'
p103
(dp104
g10
F100.0
sg11
F1.0
sg12
g52
sg13
F1.0
sssg14
F3.0
ssS'796470'
p105
(dp106
g3
F1.0
sg4
F33.333333333333329
sg5
I0
sg6
(dp107
S'SOVIN3O'
p108
(dp109
g10
F50.0
sg11
F1.0
sg12
g108
sg13
F2.0
ssS'MAKOM'
p110
(dp111
g10
F0.0
sg11
I0
sg12
g52
sg13
F1.0
sssg14
F3.0
ssS'790361'
p112
(dp113
g3
F1.0
sg4
F50.0
sg5
I0
sg6
(dp114
S'SOVIN3O'
p115
(dp116
g10
F100.0
sg11
F1.0
sg12
g115
sg13
F1.0
ssS'MAKOM'
p117
(dp118
g10
F0.0
sg11
I0
sg12
g52
sg13
F1.0
sssg14
F2.0
ssS'796479'
p119
(dp120
g3
I0
sg4
F0.0
sg5
I0
sg6
(dp121
S'SOVIN3O'
p122
(dp123
g10
F0.0
sg11
I0
sg12
g122
sg13
F1.0
sssg14
F1.0
ssS'791996'
p124
(dp125
g3
F1.0
sg4
F100.0
sg5
I0
sg6
(dp126
S'COMST'
p127
(dp128
g10
F100.0
sg11
F1.0
sg12
S'\xd0\x9c\xd0\xa2\xd0\xa1 (\xd0\x9a\xd0\x9e\xd0\x9c\xd0\xa1\xd0\xa2\xd0\x90\xd0\xa0) \xd0\xb7\xd0\xbe\xd0\xbd\xd0\xb0-\xd0\xb7\xd0\xbe\xd0\xbd\xd0\xb0'
p129
sg13
F1.0
sssg14
F1.0
ssS'790368'
p130
(dp131
g3
F3.0
sg4
F100.0
sg5
I0
sg6
(dp132
S'SOVIN3O'
p133
(dp134
g10
F100.0
sg11
F3.0
sg12
g133
sg13
F3.0
sssg14
F3.0
ssS'7395'
p135
(dp136
g3
F2.0
sg4
F100.0
sg5
I0
sg6
(dp137
g33
(dp138
g10
F100.0
sg11
F2.0
sg12
g33
sg13
F2.0
sssg14
F2.0
ssS'7800'
p139
(dp140
g3
F1.0
sg4
F100.0
sg5
I0
sg6
(dp141
S'SI'
p142
(dp143
g10
F100.0
sg11
F1.0
sg12
g142
sg13
F1.0
sssg14
F1.0
ssS'792537'
p144
(dp145
g3
I0
sg4
F0.0
sg5
I0
sg6
(dp146
S'SOVIN3O'
p147
(dp148
g10
F0.0
sg11
I0
sg12
g147
sg13
F1.0
sssg14
F1.0
ssS'78632'
p149
(dp150
g3
F3.0
sg4
F100.0
sg5
I0
sg6
(dp151
S'CAPIT'
p152
(dp153
g10
F100.0
sg11
F1.0
sg12
g152
sg13
F1.0
ssS'SI'
p154
(dp155
g10
F100.0
sg11
F2.0
sg12
g154
sg13
F2.0
sssg14
F3.0
ssS'73472'
p156
(dp157
g3
F1.0
sg4
F33.333333333333329
sg5
I0
sg6
(dp158
S'SI'
p159
(dp160
g10
F0.0
sg11
I0
sg12
g159
sg13
F2.0
ssS'CAPIT'
p161
(dp162
g10
F100.0
sg11
F1.0
sg12
g161
sg13
F1.0
sssg14
F3.0
ssS'998'
p163
(dp164
g3
F1.0
sg4
F100.0
sg5
I0
sg6
(dp165
S'SI'
p166
(dp167
g10
F100.0
sg11
F1.0
sg12
g166
sg13
F1.0
sssg14
F1.0
ssS'38044'
p168
(dp169
g3
I0
sg4
F0.0
sg5
I0
sg6
(dp170
S'CAPIT'
p171
(dp172
g10
F0.0
sg11
I0
sg12
g171
sg13
F2.0
sssg14
F2.0
ssS'79031'
p173
(dp174
g3
F14.0
sg4
F63.636363636363633
sg5
I0
sg6
(dp175
S'SOVIN3O'
p176
(dp177
g10
F57.142857142857139
sg11
F8.0
sg12
g176
sg13
F14.0
ssS'MAKOM'
p178
(dp179
g10
F75.0
sg11
F6.0
sg12
g52
sg13
F8.0
sssg14
F22.0
ssS'79032'
p180
(dp181
g3
F15.0
sg4
F62.5
sg5
I0
sg6
(dp182
S'SOVIN3O'
p183
(dp184
g10
F58.82352941176471
sg11
F10.0
sg12
g183
sg13
F17.0
ssS'MAKOM'
p185
(dp186
g10
F71.428571428571431
sg11
F5.0
sg12
g52
sg13
F7.0
sssg14
F24.0
ssS'79035'
p187
(dp188
g3
F11.0
sg4
F50.0
sg5
I0
sg6
(dp189
S'SOVIN3O'
p190
(dp191
g10
F53.846153846153847
sg11
F7.0
sg12
g190
sg13
F13.0
ssS'MAKOM'
p192
(dp193
g10
F44.444444444444443
sg11
F4.0
sg12
g52
sg13
F9.0
sssg14
F22.0
ssS'79037'
p194
(dp195
g3
F15.0
sg4
F68.181818181818173
sg5
I0
sg6
(dp196
S'SOVIN3O'
p197
(dp198
g10
F50.0
sg11
F6.0
sg12
g197
sg13
F12.0
ssS'MAKOM'
p199
(dp200
g10
F90.0
sg11
F9.0
sg12
g52
sg13
F10.0
sssg14
F22.0
ssS'371'
p201
(dp202
g3
F2.0
sg4
F100.0
sg5
I0
sg6
(dp203
S'SI2'
p204
(dp205
g10
F100.0
sg11
F1.0
sg12
g204
sg13
F1.0
ssS'SI'
p206
(dp207
g10
F100.0
sg11
F1.0
sg12
g206
sg13
F1.0
sssg14
F2.0
ssS'372'
p208
(dp209
g3
F1.0
sg4
F100.0
sg5
I0
sg6
(dp210
S'SI'
p211
(dp212
g10
F100.0
sg11
F1.0
sg12
g211
sg13
F1.0
sssg14
F1.0
ssS'375'
p213
(dp214
g3
F5.0
sg4
F100.0
sg5
I0
sg6
(dp215
S'CAPIT'
p216
(dp217
g10
F100.0
sg11
F3.0
sg12
g216
sg13
F3.0
ssS'4995570600'
p218
(dp219
g10
F100.0
sg11
F2.0
sg12
g218
sg13
F2.0
sssg14
F5.0
ssS'7925514'
p220
(dp221
g3
F1.0
sg4
F50.0
sg5
I0
sg6
(dp222
S'SOVIN3O'
p223
(dp224
g10
F50.0
sg11
F1.0
sg12
g223
sg13
F2.0
sssg14
F2.0
ssS'792520'
p225
(dp226
g3
F1.0
sg4
F100.0
sg5
I0
sg6
(dp227
S'SOVIN3O'
p228
(dp229
g10
F100.0
sg11
F1.0
sg12
g228
sg13
F1.0
sssg14
F1.0
ssS'7963714'
p230
(dp231
g3
F1.0
sg4
F100.0
sg5
I0
sg6
(dp232
g86
(dp233
g10
F100.0
sg11
F1.0
sg12
g52
sg13
F1.0
sssg14
F1.0
ssS'7963715'
p234
(dp235
g3
F1.0
sg4
F100.0
sg5
I0
sg6
(dp236
g84
(dp237
g10
F100.0
sg11
F1.0
sg12
g84
sg13
F1.0
sssg14
F1.0
ssS'74722'
p238
(dp239
g3
F2.0
sg4
F100.0
sg5
I0
sg6
(dp240
S'CAPIT'
p241
(dp242
g10
F100.0
sg11
F2.0
sg12
g241
sg13
F2.0
sssg14
F2.0
ssS'79295'
p243
(dp244
g3
F1.0
sg4
F100.0
sg5
I0
sg6
(dp245
S'SOVIN3O'
p246
(dp247
g10
F100.0
sg11
F1.0
sg12
g246
sg13
F1.0
sssg14
F1.0
ssS'79296'
p248
(dp249
g3
F1.0
sg4
F100.0
sg5
I0
sg6
(dp250
S'SOVIN3O'
p251
(dp252
g10
F100.0
sg11
F1.0
sg12
g251
sg13
F1.0
sssg14
F1.0
ssS'790915'
p253
(dp254
g3
F2.0
sg4
F66.666666666666657
sg5
I0
sg6
(dp255
S'SOVIN3O'
p256
(dp257
g10
F100.0
sg11
F2.0
sg12
g256
sg13
F2.0
ssS'MAKOM'
p258
(dp259
g10
F0.0
sg11
I0
sg12
g52
sg13
F1.0
sssg14
F3.0
ssS'79299'
p260
(dp261
g3
F1.0
sg4
F50.0
sg5
I0
sg6
(dp262
S'SOVIN3O'
p263
(dp264
g10
F50.0
sg11
F1.0
sg12
g263
sg13
F2.0
sssg14
F2.0
ssS'781664'
p265
(dp266
g3
F1.0
sg4
F100.0
sg5
I0
sg6
(dp267
g8
(dp268
g10
F100.0
sg11
F1.0
sg12
g8
sg13
F1.0
sssg14
F1.0
ssS'79689'
p269
(dp270
g3
F2.0
sg4
F100.0
sg5
I0
sg6
(dp271
S'MAKOM'
p272
(dp273
g10
F100.0
sg11
F2.0
sg12
g52
sg13
F2.0
sssg14
F2.0
ssS'79688'
p274
(dp275
g3
F3.0
sg4
F42.857142857142854
sg5
I0
sg6
(dp276
S'SOVIN3O'
p277
(dp278
g10
F0.0
sg11
I0
sg12
g277
sg13
F3.0
ssS'MAKOM'
p279
(dp280
g10
F75.0
sg11
F3.0
sg12
g52
sg13
F4.0
sssg14
F7.0
ssS'79687'
p281
(dp282
g3
F2.0
sg4
F100.0
sg5
I0
sg6
(dp283
S'SOVIN3O'
p284
(dp285
g10
F100.0
sg11
F2.0
sg12
g284
sg13
F2.0
sssg14
F2.0
ssS'79686'
p286
(dp287
g3
I0
sg4
F0.0
sg5
I0
sg6
(dp288
S'SOVIN3O'
p289
(dp290
g10
F0.0
sg11
I0
sg12
g289
sg13
F1.0
sssg14
F1.0
ssS'790301'
p291
(dp292
g3
F1.0
sg4
F100.0
sg5
I0
sg6
(dp293
S'MAKOM'
p294
(dp295
g10
F100.0
sg11
F1.0
sg12
g52
sg13
F1.0
sssg14
F1.0
ssS'790300'
p296
(dp297
g3
F1.0
sg4
F50.0
sg5
I0
sg6
(dp298
S'SOVIN3O'
p299
(dp300
g10
F0.0
sg11
I0
sg12
g299
sg13
F1.0
ssS'MAKOM'
p301
(dp302
g10
F100.0
sg11
F1.0
sg12
g52
sg13
F1.0
sssg14
F2.0
ssS'7'
p303
(dp304
g3
F1124.0
sg4
F51.701931922723091
sg5
I129
sg6
(dp305
S'4992710619'
p306
(dp307
g10
F100.0
sg11
F4.0
sg12
g306
sg13
F4.0
ssS'EKVA'
p308
(dp309
g10
F85.714285714285708
sg11
F6.0
sg12
S'\xd0\xad\xd0\xba\xd0\xb2\xd0\xb0\xd0\xbd\xd1\x82_FC'
p310
sg13
F7.0
ssS'4995570648'
p311
(dp312
g10
F95.238095238095227
sg11
F20.0
sg12
g311
sg13
F21.0
ssS'4956096700'
p313
(dp314
g10
F100.0
sg11
F1.0
sg12
g313
sg13
F1.0
ssS'4957894542'
p315
(dp316
g10
F100.0
sg11
F2.0
sg12
g315
sg13
F2.0
ssS'4956096090'
p317
(dp318
g10
F100.0
sg11
F6.0
sg12
g317
sg13
F6.0
ssS'4952211810'
p319
(dp320
g10
F71.428571428571431
sg11
F5.0
sg12
g319
sg13
F7.0
ssS'DT'
p321
(dp322
g10
F60.439560439560438
sg11
F55.0
sg12
g24
sg13
F91.0
ssS'4951111111'
p323
(dp324
g10
F0.0
sg11
I0
sg12
g323
sg13
F17.0
ssS'4956096888'
p325
(dp326
g10
F100.0
sg11
F3.0
sg12
g325
sg13
F3.0
ssS'4956379097'
p327
(dp328
g10
F100.0
sg11
F2.0
sg12
g327
sg13
F2.0
ssS'4957894525'
p329
(dp330
g10
F100.0
sg11
F1.0
sg12
g329
sg13
F1.0
ssS'CTELM'
p331
(dp332
g10
F86.36363636363636
sg11
F19.0
sg12
g331
sg13
F22.0
ssg183
(dp333
g10
F64.799999999999997
sg11
F162.0
sg12
g183
sg13
F250.0
ssS'SI'
p334
(dp335
g10
F79.194630872483216
sg11
F236.0
sg12
g334
sg13
F298.0
ssS'MAST'
p336
(dp337
g10
F100.0
sg11
F1.0
sg12
g336
sg13
F1.0
ssS'4957894587'
p338
(dp339
g10
F92.307692307692307
sg11
F12.0
sg12
g338
sg13
F13.0
ssS'4957873181'
p340
(dp341
g10
F100.0
sg11
F11.0
sg12
g340
sg13
F11.0
ssS'COMST'
p342
(dp343
g10
F61.512027491408936
sg11
F179.0
sg12
g129
sg13
F291.0
ssS'COUNT'
p344
(dp345
g10
F62.5
sg11
F5.0
sg12
S'\xd0\x9a\xd0\xb0\xd0\xbd\xd1\x82\xd1\x80\xd0\xb8\xd0\x9a\xd0\xbe\xd0\xbc \xd0\xbc\xd0\xb5\xd1\x81\xd1\x82\xd0\xbd\xd0\xb0\xd1\x8f'
p346
sg13
F8.0
ssS'4956096450'
p347
(dp348
g10
F100.0
sg11
F3.0
sg12
g347
sg13
F3.0
ssS'4995570600'
p349
(dp350
g10
F29.629629629629626
sg11
F128.0
sg12
g349
sg13
F432.0
ssS'4950000438'
p351
(dp352
g10
F81.818181818181827
sg11
F9.0
sg12
g351
sg13
F11.0
ssS'SI2'
p353
(dp354
g10
F0.0
sg11
I0
sg12
g353
sg13
F11.0
ssS'4950000434'
p355
(dp356
g10
F80.0
sg11
F12.0
sg12
g355
sg13
F15.0
ssS'4950000456'
p357
(dp358
g10
F60.0
sg11
F3.0
sg12
g357
sg13
F5.0
ssS'4950000455'
p359
(dp360
g10
F100.0
sg11
F6.0
sg12
g359
sg13
F6.0
ssS'MGMN'
p361
(dp362
g10
F100.0
sg11
F1.0
sg12
g361
sg13
F1.0
ssS'4950000425'
p363
(dp364
g10
F55.555555555555557
sg11
F5.0
sg12
g363
sg13
F9.0
ssS'4956096615'
p365
(dp366
g10
F100.0
sg11
F2.0
sg12
g365
sg13
F2.0
ssS'4957894433'
p367
(dp368
g10
F100.0
sg11
F11.0
sg12
g367
sg13
F11.0
ssS'4957894450'
p369
(dp370
g10
F100.0
sg11
F1.0
sg12
g369
sg13
F1.0
ssS'4956096817'
p371
(dp372
g10
F100.0
sg11
F1.0
sg12
g371
sg13
F1.0
ssS'CAPIT'
p373
(dp374
g10
F43.820224719101127
sg11
F39.0
sg12
g373
sg13
F89.0
ssS'MAKOM'
p375
(dp376
g10
F69.791666666666657
sg11
F134.0
sg12
g52
sg13
F192.0
ssS'4990000461'
p377
(dp378
g10
F100.0
sg11
F2.0
sg12
g377
sg13
F2.0
ssS'4957883888'
p379
(dp380
g10
F89.473684210526315
sg11
F17.0
sg12
g379
sg13
F19.0
ssS'SOVIN'
p381
(dp382
g10
F90.476190476190482
sg11
F19.0
sg12
S'\xd0\x92\xd1\x8b\xd0\xbc\xd0\xbf\xd0\xb5\xd0\xbb\xd0\x9a\xd0\xbe\xd0\xbc \xd0\xb4\xd0\xbe\xd0\xb3.JF053'
p383
sg13
F21.0
ssS'4956096111'
p384
(dp385
g10
F0.63694267515923575
sg11
F1.0
sg12
g384
sg13
F157.0
ssS'MTRX'
p386
(dp387
g10
F0.0
sg11
I0
sg12
S'\xd0\x9c\xd0\xb0\xd1\x82\xd1\x80\xd0\xb8\xd0\xba\xd1\x81 \xd0\xa2\xd0\xb5\xd0\xbb\xd0\xb5\xd0\xba\xd0\xbe\xd0\xbc \xd0\xb7\xd0\xbe\xd0\xbd\xd0\xb0-\xd0\xb7\xd0\xbe\xd0\xbd\xd0\xb0'
p388
sg13
F1.0
sssg14
F2174.0
ssS'796458'
p389
(dp390
g3
I0
sg4
F0.0
sg5
I0
sg6
(dp391
S'SOVIN3O'
p392
(dp393
g10
F0.0
sg11
I0
sg12
g392
sg13
F1.0
ssS'MAKOM'
p394
(dp395
g10
F0.0
sg11
I0
sg12
g52
sg13
F1.0
sssg14
F2.0
ssS'796457'
p396
(dp397
g3
F1.0
sg4
F100.0
sg5
I0
sg6
(dp398
S'MAKOM'
p399
(dp400
g10
F100.0
sg11
F1.0
sg12
g52
sg13
F1.0
sssg14
F1.0
ssS'796456'
p401
(dp402
g3
F1.0
sg4
F50.0
sg5
I0
sg6
(dp403
S'SOVIN3O'
p404
(dp405
g10
F0.0
sg11
I0
sg12
g404
sg13
F1.0
ssS'MAKOM'
p406
(dp407
g10
F100.0
sg11
F1.0
sg12
g52
sg13
F1.0
sssg14
F2.0
ssS'796455'
p408
(dp409
g3
F1.0
sg4
F100.0
sg5
I0
sg6
(dp410
S'SOVIN3O'
p411
(dp412
g10
F100.0
sg11
F1.0
sg12
g411
sg13
F1.0
sssg14
F1.0
ssS'796453'
p413
(dp414
g3
F1.0
sg4
F100.0
sg5
I0
sg6
(dp415
S'MAKOM'
p416
(dp417
g10
F100.0
sg11
F1.0
sg12
g52
sg13
F1.0
sssg14
F1.0
ssS'796452'
p418
(dp419
g3
F2.0
sg4
F100.0
sg5
I0
sg6
(dp420
S'SOVIN3O'
p421
(dp422
g10
F100.0
sg11
F2.0
sg12
g421
sg13
F2.0
sssg14
F2.0
ssS'796451'
p423
(dp424
g3
I0
sg4
F0.0
sg5
I0
sg6
(dp425
S'SOVIN3O'
p426
(dp427
g10
F0.0
sg11
I0
sg12
g426
sg13
F2.0
ssS'MAKOM'
p428
(dp429
g10
F0.0
sg11
I0
sg12
g52
sg13
F1.0
sssg14
F3.0
ssS'74732'
p430
(dp431
g3
F4.0
sg4
F80.0
sg5
I0
sg6
(dp432
g321
(dp433
g10
F75.0
sg11
F3.0
sg12
g24
sg13
F4.0
ssS'SI'
p434
(dp435
g10
F100.0
sg11
F1.0
sg12
g434
sg13
F1.0
sssg14
F5.0
ssS'74852'
p436
(dp437
g3
F1.0
sg4
F100.0
sg5
I0
sg6
(dp438
S'DT'
p439
(dp440
g10
F100.0
sg11
F1.0
sg12
g24
sg13
F1.0
sssg14
F1.0
ssS'74855'
p441
(dp442
g3
I0
sg4
F0.0
sg5
I0
sg6
(dp443
S'DT'
p444
(dp445
g10
F0.0
sg11
I0
sg12
g24
sg13
F2.0
sssg14
F2.0
ssS'380'
p446
(dp447
g3
F4.0
sg4
F66.666666666666657
sg5
I0
sg6
(dp448
S'CAPIT'
p449
(dp450
g10
F66.666666666666657
sg11
F4.0
sg12
g449
sg13
F6.0
sssg14
F6.0
ssS'78452'
p451
(dp452
g3
F1.0
sg4
F100.0
sg5
I0
sg6
(dp453
S'CAPIT'
p454
(dp455
g10
F100.0
sg11
F1.0
sg12
g454
sg13
F1.0
sssg14
F1.0
ssS'7863'
p456
(dp457
g3
F5.0
sg4
F71.428571428571431
sg5
I0
sg6
(dp458
g152
(dp459
g10
F75.0
sg11
F3.0
sg12
g152
sg13
F4.0
ssg154
(dp460
g10
F100.0
sg11
F2.0
sg12
g154
sg13
F2.0
ssS'DT'
p461
(dp462
g10
F0.0
sg11
I0
sg12
g24
sg13
F1.0
sssg14
F7.0
ssS'7861'
p463
(dp464
g3
F1.0
sg4
F33.333333333333329
sg5
I0
sg6
(dp465
S'CAPIT'
p466
(dp467
g10
F33.333333333333329
sg11
F1.0
sg12
g466
sg13
F3.0
sssg14
F3.0
ssS'790968'
p468
(dp469
g3
F1.0
sg4
F100.0
sg5
I0
sg6
(dp470
S'SOVIN3O'
p471
(dp472
g10
F100.0
sg11
F1.0
sg12
g471
sg13
F1.0
sssg14
F1.0
ssS'33'
p473
(dp474
g3
F5.0
sg4
F71.428571428571431
sg5
I0
sg6
(dp475
S'SI2'
p476
(dp477
g10
F100.0
sg11
F1.0
sg12
g476
sg13
F1.0
ssS'DT'
p478
(dp479
g10
F66.666666666666657
sg11
F4.0
sg12
g24
sg13
F6.0
sssg14
F7.0
ssS'790964'
p480
(dp481
g3
F1.0
sg4
F100.0
sg5
I0
sg6
(dp482
S'MAKOM'
p483
(dp484
g10
F100.0
sg11
F1.0
sg12
g52
sg13
F1.0
sssg14
F1.0
ssS'31'
p485
(dp486
g3
I0
sg4
F0.0
sg5
I0
sg6
(dp487
S'CAPIT'
p488
(dp489
g10
F0.0
sg11
I0
sg12
g488
sg13
F1.0
ssS'DT'
p490
(dp491
g10
F0.0
sg11
I0
sg12
g24
sg13
F1.0
sssg14
F2.0
ssS'790966'
p492
(dp493
g3
F1.0
sg4
F100.0
sg5
I0
sg6
(dp494
S'SOVIN3O'
p495
(dp496
g10
F100.0
sg11
F1.0
sg12
g495
sg13
F1.0
sssg14
F1.0
ssS'790963'
p497
(dp498
g3
F3.0
sg4
F75.0
sg5
I0
sg6
(dp499
S'SOVIN3O'
p500
(dp501
g10
F66.666666666666657
sg11
F2.0
sg12
g500
sg13
F3.0
ssS'MAKOM'
p502
(dp503
g10
F100.0
sg11
F1.0
sg12
g52
sg13
F1.0
sssg14
F4.0
ssS'790962'
p504
(dp505
g3
F2.0
sg4
F100.0
sg5
I0
sg6
(dp506
S'SOVIN3O'
p507
(dp508
g10
F100.0
sg11
F2.0
sg12
g507
sg13
F2.0
sssg14
F2.0
ssS'74932'
p509
(dp510
g3
F2.0
sg4
F66.666666666666657
sg5
I0
sg6
(dp511
S'SI'
p512
(dp513
g10
F100.0
sg11
F2.0
sg12
g512
sg13
F2.0
ssS'CAPIT'
p514
(dp515
g10
F0.0
sg11
I0
sg12
g514
sg13
F1.0
sssg14
F3.0
ssS'7423'
p516
(dp517
g3
F1.0
sg4
F50.0
sg5
I0
sg6
(dp518
g349
(dp519
g10
F50.0
sg11
F1.0
sg12
g349
sg13
F2.0
sssg14
F2.0
ssS'79057'
p520
(dp521
g3
F11.0
sg4
F47.826086956521742
sg5
I0
sg6
(dp522
S'SOVIN3O'
p523
(dp524
g10
F42.857142857142854
sg11
F6.0
sg12
g523
sg13
F14.0
ssS'MAKOM'
p525
(dp526
g10
F55.555555555555557
sg11
F5.0
sg12
g52
sg13
F9.0
sssg14
F23.0
ssS'79055'
p527
(dp528
g3
F9.0
sg4
F60.0
sg5
I0
sg6
(dp529
S'SOVIN3O'
p530
(dp531
g10
F60.0
sg11
F6.0
sg12
g530
sg13
F10.0
ssS'MAKOM'
p532
(dp533
g10
F60.0
sg11
F3.0
sg12
g52
sg13
F5.0
sssg14
F15.0
ssS'791972'
p534
(dp535
g3
F1.0
sg4
F100.0
sg5
I0
sg6
(dp536
S'MAKOM'
p537
(dp538
g10
F100.0
sg11
F1.0
sg12
g52
sg13
F1.0
sssg14
F1.0
ssS'79672'
p539
(dp540
g3
F5.0
sg4
F100.0
sg5
I0
sg6
(dp541
S'SOVIN3O'
p542
(dp543
g10
F100.0
sg11
F3.0
sg12
g542
sg13
F3.0
ssS'MAKOM'
p544
(dp545
g10
F100.0
sg11
F2.0
sg12
g52
sg13
F2.0
sssg14
F5.0
ssS'749644'
p546
(dp547
g3
F1.0
sg4
F100.0
sg5
I0
sg6
(dp548
S'DT'
p549
(dp550
g10
F100.0
sg11
F1.0
sg12
g24
sg13
F1.0
sssg14
F1.0
ssS'79670'
p551
(dp552
g3
F5.0
sg4
F100.0
sg5
I0
sg6
(dp553
S'SOVIN3O'
p554
(dp555
g10
F100.0
sg11
F4.0
sg12
g554
sg13
F4.0
ssS'MAKOM'
p556
(dp557
g10
F100.0
sg11
F1.0
sg12
g52
sg13
F1.0
sssg14
F5.0
ssS'79671'
p558
(dp559
g3
F3.0
sg4
F50.0
sg5
I0
sg6
(dp560
S'SOVIN3O'
p561
(dp562
g10
F33.333333333333329
sg11
F1.0
sg12
g561
sg13
F3.0
ssS'MAKOM'
p563
(dp564
g10
F66.666666666666657
sg11
F2.0
sg12
g52
sg13
F3.0
sssg14
F6.0
ssS'7496'
p565
(dp566
g3
F2.0
sg4
F40.0
sg5
I0
sg6
(dp567
g549
(dp568
g10
F66.666666666666657
sg11
F2.0
sg12
g24
sg13
F3.0
ssS'SI'
p569
(dp570
g10
F0.0
sg11
I0
sg12
g569
sg13
F2.0
sssg14
F5.0
ssS'790118'
p571
(dp572
g3
I0
sg4
F0.0
sg5
I0
sg6
(dp573
S'SOVIN3O'
p574
(dp575
g10
F0.0
sg11
I0
sg12
g574
sg13
F1.0
sssg14
F1.0
ssS'7347'
p576
(dp577
g3
F1.0
sg4
F16.666666666666664
sg5
I0
sg6
(dp578
g161
(dp579
g10
F100.0
sg11
F1.0
sg12
g161
sg13
F1.0
ssS'DT'
p580
(dp581
g10
F0.0
sg11
I0
sg12
g24
sg13
F3.0
ssg159
(dp582
g10
F0.0
sg11
I0
sg12
g159
sg13
F2.0
sssg14
F6.0
ssS'7345'
p583
(dp584
g3
F1.0
sg4
F100.0
sg5
I0
sg6
(dp585
S'CAPIT'
p586
(dp587
g10
F100.0
sg11
F1.0
sg12
g586
sg13
F1.0
sssg14
F1.0
ssS'7342'
p588
(dp589
g3
F1.0
sg4
F20.0
sg5
I0
sg6
(dp590
g77
(dp591
g10
F100.0
sg11
F1.0
sg12
g24
sg13
F1.0
ssg79
(dp592
g10
F0.0
sg11
I0
sg12
g79
sg13
F4.0
sssg14
F5.0
ssS'7343'
p593
(dp594
g3
F1.0
sg4
F50.0
sg5
I0
sg6
(dp595
S'DT'
p596
(dp597
g10
F100.0
sg11
F1.0
sg12
g24
sg13
F1.0
ssS'SI'
p598
(dp599
g10
F0.0
sg11
I0
sg12
g598
sg13
F1.0
sssg14
F2.0
ssS'7855'
p600
(dp601
g3
F1.0
sg4
F100.0
sg5
I0
sg6
(dp602
S'DT'
p603
(dp604
g10
F100.0
sg11
F1.0
sg12
g24
sg13
F1.0
sssg14
F1.0
ssS'783146'
p605
(dp606
g3
F1.0
sg4
F100.0
sg5
I0
sg6
(dp607
S'DT'
p608
(dp609
g10
F100.0
sg11
F1.0
sg12
g24
sg13
F1.0
sssg14
F1.0
ssS'791976'
p610
(dp611
g3
F1.0
sg4
F100.0
sg5
I0
sg6
(dp612
S'COMST'
p613
(dp614
g10
F100.0
sg11
F1.0
sg12
g129
sg13
F1.0
sssg14
F1.0
ssS'7916'
p615
(dp616
g3
F41.0
sg4
F64.0625
sg5
I0
sg6
(dp617
S'COMST'
p618
(dp619
g10
F63.157894736842103
sg11
F12.0
sg12
g129
sg13
F19.0
ssg375
(dp620
g10
F64.444444444444443
sg11
F29.0
sg12
g52
sg13
F45.0
sssg14
F64.0
ssS'74742'
p621
(dp622
g3
F1.0
sg4
F33.333333333333329
sg5
I0
sg6
(dp623
S'CAPIT'
p624
(dp625
g10
F0.0
sg11
I0
sg12
g624
sg13
F1.0
ssS'DT'
p626
(dp627
g10
F50.0
sg11
F1.0
sg12
g24
sg13
F2.0
sssg14
F3.0
ssS'7499'
p628
(dp629
g3
F49.0
sg4
F67.123287671232873
sg5
I0
sg6
(dp630
S'COUNT'
p631
(dp632
g10
F100.0
sg11
F1.0
sg12
g346
sg13
F1.0
ssS'CTELM'
p633
(dp634
g10
F100.0
sg11
F2.0
sg12
g633
sg13
F2.0
ssg334
(dp635
g10
F62.5
sg11
F25.0
sg12
g334
sg13
F40.0
ssS'SOVIN'
p636
(dp637
g10
F100.0
sg11
F1.0
sg12
g383
sg13
F1.0
ssg306
(dp638
g10
F100.0
sg11
F4.0
sg12
g306
sg13
F4.0
ssS'DT'
p639
(dp640
g10
F100.0
sg11
F3.0
sg12
g24
sg13
F3.0
ssg342
(dp641
g10
F59.090909090909093
sg11
F13.0
sg12
g129
sg13
F22.0
sssg14
F73.0
ssS'7493'
p642
(dp643
g3
F2.0
sg4
F40.0
sg5
I0
sg6
(dp644
g512
(dp645
g10
F100.0
sg11
F2.0
sg12
g512
sg13
F2.0
ssS'CAPIT'
p646
(dp647
g10
F0.0
sg11
I0
sg12
g646
sg13
F3.0
sssg14
F5.0
ssS'79104'
p648
(dp649
g3
F7.0
sg4
F63.636363636363633
sg5
I0
sg6
(dp650
S'SI'
p651
(dp652
g10
F0.0
sg11
I0
sg12
g651
sg13
F1.0
ssS'MAKOM'
p653
(dp654
g10
F70.0
sg11
F7.0
sg12
g52
sg13
F10.0
sssg14
F11.0
ssS'7495'
p655
(dp656
g3
F615.0
sg4
F46.2406015037594
sg5
I129
sg6
(dp657
g325
(dp658
g10
F100.0
sg11
F3.0
sg12
g325
sg13
F3.0
ssS'4995570600'
p659
(dp660
g10
F28.888888888888886
sg11
F91.0
sg12
g659
sg13
F315.0
ssg311
(dp661
g10
F94.73684210526315
sg11
F18.0
sg12
g311
sg13
F19.0
ssg313
(dp662
g10
F100.0
sg11
F1.0
sg12
g313
sg13
F1.0
ssg315
(dp663
g10
F100.0
sg11
F2.0
sg12
g315
sg13
F2.0
ssg317
(dp664
g10
F100.0
sg11
F6.0
sg12
g317
sg13
F6.0
ssg319
(dp665
g10
F71.428571428571431
sg11
F5.0
sg12
g319
sg13
F7.0
ssS'DT'
p666
(dp667
g10
F60.0
sg11
F27.0
sg12
g24
sg13
F45.0
ssg323
(dp668
g10
F0.0
sg11
I0
sg12
g323
sg13
F17.0
ssg327
(dp669
g10
F100.0
sg11
F2.0
sg12
g327
sg13
F2.0
ssg329
(dp670
g10
F100.0
sg11
F1.0
sg12
g329
sg13
F1.0
ssg331
(dp671
g10
F85.0
sg11
F17.0
sg12
g331
sg13
F20.0
ssg347
(dp672
g10
F100.0
sg11
F3.0
sg12
g347
sg13
F3.0
ssS'SI'
p673
(dp674
g10
F87.0
sg11
F174.0
sg12
g673
sg13
F200.0
ssg336
(dp675
g10
F100.0
sg11
F1.0
sg12
g336
sg13
F1.0
ssg338
(dp676
g10
F92.307692307692307
sg11
F12.0
sg12
g338
sg13
F13.0
ssg340
(dp677
g10
F100.0
sg11
F11.0
sg12
g340
sg13
F11.0
ssS'COMST'
p678
(dp679
g10
F60.606060606060609
sg11
F140.0
sg12
g129
sg13
F231.0
ssg344
(dp680
g10
F57.142857142857139
sg11
F4.0
sg12
g346
sg13
F7.0
ssg308
(dp681
g10
F85.714285714285708
sg11
F6.0
sg12
g310
sg13
F7.0
ssg351
(dp682
g10
F81.818181818181827
sg11
F9.0
sg12
g351
sg13
F11.0
ssg353
(dp683
g10
F0.0
sg11
I0
sg12
g353
sg13
F10.0
ssg355
(dp684
g10
F80.0
sg11
F12.0
sg12
g355
sg13
F15.0
ssg357
(dp685
g10
F60.0
sg11
F3.0
sg12
g357
sg13
F5.0
ssg359
(dp686
g10
F100.0
sg11
F6.0
sg12
g359
sg13
F6.0
ssg361
(dp687
g10
F100.0
sg11
F1.0
sg12
g361
sg13
F1.0
ssg363
(dp688
g10
F55.555555555555557
sg11
F5.0
sg12
g363
sg13
F9.0
ssg365
(dp689
g10
F100.0
sg11
F2.0
sg12
g365
sg13
F2.0
ssg367
(dp690
g10
F100.0
sg11
F11.0
sg12
g367
sg13
F11.0
ssg369
(dp691
g10
F100.0
sg11
F1.0
sg12
g369
sg13
F1.0
ssg371
(dp692
g10
F100.0
sg11
F1.0
sg12
g371
sg13
F1.0
ssS'CAPIT'
p693
(dp694
g10
F5.8823529411764701
sg11
F1.0
sg12
g693
sg13
F17.0
ssS'MAKOM'
p695
(dp696
g10
F50.0
sg11
F1.0
sg12
g52
sg13
F2.0
ssg377
(dp697
g10
F100.0
sg11
F2.0
sg12
g377
sg13
F2.0
ssg379
(dp698
g10
F89.473684210526315
sg11
F17.0
sg12
g379
sg13
F19.0
ssg381
(dp699
g10
F90.0
sg11
F18.0
sg12
g383
sg13
F20.0
ssg384
(dp700
g10
F0.63694267515923575
sg11
F1.0
sg12
g384
sg13
F157.0
ssg386
(dp701
g10
F0.0
sg11
I0
sg12
g388
sg13
F1.0
sssg14
F1330.0
ssS'731'
p702
(dp703
g3
F1.0
sg4
F33.333333333333329
sg5
I0
sg6
(dp704
S'4995570600'
p705
(dp706
g10
F33.333333333333329
sg11
F1.0
sg12
g705
sg13
F3.0
sssg14
F3.0
ssS'73452'
p707
(dp708
g3
F1.0
sg4
F100.0
sg5
I0
sg6
(dp709
g586
(dp710
g10
F100.0
sg11
F1.0
sg12
g586
sg13
F1.0
sssg14
F1.0
ssS'7985'
p711
(dp712
g3
F16.0
sg4
F61.53846153846154
sg5
I0
sg6
(dp713
S'COMST'
p714
(dp715
g10
F60.0
sg11
F6.0
sg12
g129
sg13
F10.0
ssS'MAKOM'
p716
(dp717
g10
F62.5
sg11
F10.0
sg12
g52
sg13
F16.0
sssg14
F26.0
ssS'79060'
p718
(dp719
g3
F2.0
sg4
F100.0
sg5
I0
sg6
(dp720
S'SOVIN3O'
p721
(dp722
g10
F100.0
sg11
F2.0
sg12
g721
sg13
F2.0
sssg14
F2.0
ssS'79067'
p723
(dp724
g3
F8.0
sg4
F72.727272727272734
sg5
I0
sg6
(dp725
S'SOVIN3O'
p726
(dp727
g10
F70.0
sg11
F7.0
sg12
g726
sg13
F10.0
ssS'MAKOM'
p728
(dp729
g10
F100.0
sg11
F1.0
sg12
g52
sg13
F1.0
sssg14
F11.0
ssS'790362'
p730
(dp731
g3
F1.0
sg4
F33.333333333333329
sg5
I0
sg6
(dp732
S'SOVIN3O'
p733
(dp734
g10
F33.333333333333329
sg11
F1.0
sg12
g733
sg13
F3.0
sssg14
F3.0
ssS'7926'
p735
(dp736
g3
F41.0
sg4
F67.213114754098356
sg5
I0
sg6
(dp737
S'SOVIN3O'
p738
(dp739
g10
F65.957446808510639
sg11
F31.0
sg12
g738
sg13
F47.0
ssS'SI2'
p740
(dp741
g10
F0.0
sg11
I0
sg12
g740
sg13
F1.0
ssS'SI'
p742
(dp743
g10
F75.0
sg11
F9.0
sg12
g742
sg13
F12.0
ssS'4995570600'
p744
(dp745
g10
F100.0
sg11
F1.0
sg12
g744
sg13
F1.0
sssg14
F61.0
ssS'73432'
p746
(dp747
g3
F1.0
sg4
F100.0
sg5
I0
sg6
(dp748
g596
(dp749
g10
F100.0
sg11
F1.0
sg12
g24
sg13
F1.0
sssg14
F1.0
ssS'73433'
p750
(dp751
g3
I0
sg4
F0.0
sg5
I0
sg6
(dp752
g598
(dp753
g10
F0.0
sg11
I0
sg12
g598
sg13
F1.0
sssg14
F1.0
ssS'74964'
p754
(dp755
g3
F1.0
sg4
F100.0
sg5
I0
sg6
(dp756
g549
(dp757
g10
F100.0
sg11
F1.0
sg12
g24
sg13
F1.0
sssg14
F1.0
ssS'7485'
p758
(dp759
g3
F1.0
sg4
F33.333333333333329
sg5
I0
sg6
(dp760
g444
(dp761
g10
F33.333333333333329
sg11
F1.0
sg12
g24
sg13
F3.0
sssg14
F3.0
ssS'796526'
p762
(dp763
g3
F4.0
sg4
F100.0
sg5
I0
sg6
(dp764
S'MAKOM'
p765
(dp766
g10
F100.0
sg11
F4.0
sg12
g52
sg13
F4.0
sssg14
F4.0
ssS'7487'
p767
(dp768
g3
F3.0
sg4
F100.0
sg5
I0
sg6
(dp769
S'DT'
p770
(dp771
g10
F100.0
sg11
F3.0
sg12
g24
sg13
F3.0
sssg14
F3.0
ssS'7352'
p772
(dp773
g3
F1.0
sg4
F16.666666666666664
sg5
I0
sg6
(dp774
S'DT'
p775
(dp776
g10
F16.666666666666664
sg11
F1.0
sg12
g24
sg13
F6.0
sssg14
F6.0
ssS'796522'
p777
(dp778
g3
F1.0
sg4
F50.0
sg5
I0
sg6
(dp779
S'SOVIN3O'
p780
(dp781
g10
F0.0
sg11
I0
sg12
g780
sg13
F1.0
ssS'MAKOM'
p782
(dp783
g10
F100.0
sg11
F1.0
sg12
g52
sg13
F1.0
sssg14
F2.0
ssS'7482'
p784
(dp785
g3
F1.0
sg4
F20.0
sg5
I0
sg6
(dp786
S'DT'
p787
(dp788
g10
F100.0
sg11
F1.0
sg12
g24
sg13
F1.0
ssS'4995570600'
p789
(dp790
g10
F0.0
sg11
I0
sg12
g789
sg13
F4.0
sssg14
F5.0
ssS'7845'
p791
(dp792
g3
F2.0
sg4
F100.0
sg5
I0
sg6
(dp793
g454
(dp794
g10
F100.0
sg11
F2.0
sg12
g454
sg13
F2.0
sssg14
F2.0
ssS'7846'
p795
(dp796
g3
F4.0
sg4
F100.0
sg5
I0
sg6
(dp797
S'DT'
p798
(dp799
g10
F100.0
sg11
F4.0
sg12
g24
sg13
F4.0
sssg14
F4.0
ssS'74752'
p800
(dp801
g3
F4.0
sg4
F80.0
sg5
I0
sg6
(dp802
S'SI'
p803
(dp804
g10
F100.0
sg11
F1.0
sg12
g803
sg13
F1.0
ssS'CAPIT'
p805
(dp806
g10
F75.0
sg11
F3.0
sg12
g805
sg13
F4.0
sssg14
F5.0
ssS'79175'
p807
(dp808
g3
F6.0
sg4
F100.0
sg5
I0
sg6
(dp809
S'COMST'
p810
(dp811
g10
F100.0
sg11
F2.0
sg12
g129
sg13
F2.0
ssS'MAKOM'
p812
(dp813
g10
F100.0
sg11
F4.0
sg12
g52
sg13
F4.0
sssg14
F6.0
ssS'74712'
p814
(dp815
g3
F1.0
sg4
F100.0
sg5
I0
sg6
(dp816
S'SI'
p817
(dp818
g10
F100.0
sg11
F1.0
sg12
g817
sg13
F1.0
sssg14
F1.0
ssS'79099'
p819
(dp820
g3
F13.0
sg4
F86.666666666666671
sg5
I0
sg6
(dp821
S'SOVIN3O'
p822
(dp823
g10
F87.5
sg11
F7.0
sg12
g822
sg13
F8.0
ssS'MAKOM'
p824
(dp825
g10
F85.714285714285708
sg11
F6.0
sg12
g52
sg13
F7.0
sssg14
F15.0
ssS'79651'
p826
(dp827
g3
F3.0
sg4
F60.0
sg5
I0
sg6
(dp828
S'SOVIN3O'
p829
(dp830
g10
F75.0
sg11
F3.0
sg12
g829
sg13
F4.0
ssS'MAKOM'
p831
(dp832
g10
F0.0
sg11
I0
sg12
g52
sg13
F1.0
sssg14
F5.0
ssS'79652'
p833
(dp834
g3
F6.0
sg4
F85.714285714285708
sg5
I0
sg6
(dp835
S'SOVIN3O'
p836
(dp837
g10
F50.0
sg11
F1.0
sg12
g836
sg13
F2.0
ssg765
(dp838
g10
F100.0
sg11
F5.0
sg12
g52
sg13
F5.0
sssg14
F7.0
ssS'79653'
p839
(dp840
g3
F6.0
sg4
F85.714285714285708
sg5
I0
sg6
(dp841
S'SOVIN3O'
p842
(dp843
g10
F80.0
sg11
F4.0
sg12
g842
sg13
F5.0
ssS'MAKOM'
p844
(dp845
g10
F100.0
sg11
F2.0
sg12
g52
sg13
F2.0
sssg14
F7.0
ssS'749673'
p846
(dp847
g3
I0
sg4
F0.0
sg5
I0
sg6
(dp848
S'DT'
p849
(dp850
g10
F0.0
sg11
I0
sg12
g24
sg13
F1.0
sssg14
F1.0
ssS'7831'
p851
(dp852
g3
F2.0
sg4
F100.0
sg5
I0
sg6
(dp853
g608
(dp854
g10
F100.0
sg11
F1.0
sg12
g24
sg13
F1.0
ssS'SI'
p855
(dp856
g10
F100.0
sg11
F1.0
sg12
g855
sg13
F1.0
sssg14
F2.0
ssS'749676'
p857
(dp858
g3
F1.0
sg4
F33.333333333333329
sg5
I0
sg6
(dp859
S'DT'
p860
(dp861
g10
F100.0
sg11
F1.0
sg12
g24
sg13
F1.0
ssg569
(dp862
g10
F0.0
sg11
I0
sg12
g569
sg13
F2.0
sssg14
F3.0
ssS'73832'
p863
(dp864
g3
F1.0
sg4
F100.0
sg5
I0
sg6
(dp865
g38
(dp866
g10
F100.0
sg11
F1.0
sg12
g38
sg13
F1.0
sssg14
F1.0
ssS'796396'
p867
(dp868
g3
F2.0
sg4
F100.0
sg5
I0
sg6
(dp869
S'SOVIN3O'
p870
(dp871
g10
F100.0
sg11
F2.0
sg12
g870
sg13
F2.0
sssg14
F2.0
ssS'79257'
p872
(dp873
g3
F1.0
sg4
F50.0
sg5
I0
sg6
(dp874
S'SOVIN3O'
p875
(dp876
g10
F50.0
sg11
F1.0
sg12
g875
sg13
F2.0
sssg14
F2.0
ssS'79258'
p877
(dp878
g3
F1.0
sg4
F50.0
sg5
I0
sg6
(dp879
S'SOVIN3O'
p880
(dp881
g10
F50.0
sg11
F1.0
sg12
g880
sg13
F2.0
sssg14
F2.0
ssS'44'
p882
(dp883
g3
F3.0
sg4
F75.0
sg5
I0
sg6
(dp884
S'SI2'
p885
(dp886
g10
F66.666666666666657
sg11
F2.0
sg12
g885
sg13
F3.0
ssS'CAPIT'
p887
(dp888
g10
F100.0
sg11
F1.0
sg12
g887
sg13
F1.0
sssg14
F4.0
ssS'74862'
p889
(dp890
g3
F2.0
sg4
F50.0
sg5
I0
sg6
(dp891
g70
(dp892
g10
F50.0
sg11
F1.0
sg12
g70
sg13
F2.0
ssg72
(dp893
g10
F50.0
sg11
F1.0
sg12
g24
sg13
F2.0
sssg14
F4.0
ssS'791910'
p894
(dp895
g3
I0
sg4
F0.0
sg5
I0
sg6
(dp896
S'MAKOM'
p897
(dp898
g10
F0.0
sg11
I0
sg12
g52
sg13
F1.0
sssg14
F1.0
ssS'7471'
p899
(dp900
g3
F2.0
sg4
F100.0
sg5
I0
sg6
(dp901
S'CAPIT'
p902
(dp903
g10
F100.0
sg11
F1.0
sg12
g902
sg13
F1.0
ssg817
(dp904
g10
F100.0
sg11
F1.0
sg12
g817
sg13
F1.0
sssg14
F2.0
ssS'7472'
p905
(dp906
g3
F5.0
sg4
F83.333333333333343
sg5
I0
sg6
(dp907
g241
(dp908
g10
F100.0
sg11
F4.0
sg12
g241
sg13
F4.0
ssS'DT'
p909
(dp910
g10
F50.0
sg11
F1.0
sg12
g24
sg13
F2.0
sssg14
F6.0
ssS'7473'
p911
(dp912
g3
F4.0
sg4
F80.0
sg5
I0
sg6
(dp913
g321
(dp914
g10
F75.0
sg11
F3.0
sg12
g24
sg13
F4.0
ssg434
(dp915
g10
F100.0
sg11
F1.0
sg12
g434
sg13
F1.0
sssg14
F5.0
ssS'7474'
p916
(dp917
g3
F1.0
sg4
F33.333333333333329
sg5
I0
sg6
(dp918
g624
(dp919
g10
F0.0
sg11
I0
sg12
g624
sg13
F1.0
ssg626
(dp920
g10
F50.0
sg11
F1.0
sg12
g24
sg13
F2.0
sssg14
F3.0
ssS'7475'
p921
(dp922
g3
F6.0
sg4
F46.153846153846153
sg5
I0
sg6
(dp923
g803
(dp924
g10
F100.0
sg11
F1.0
sg12
g803
sg13
F1.0
ssg805
(dp925
g10
F37.5
sg11
F3.0
sg12
g805
sg13
F8.0
ssS'DT'
p926
(dp927
g10
F50.0
sg11
F2.0
sg12
g24
sg13
F4.0
sssg14
F13.0
ssS'79629'
p928
(dp929
g3
F4.0
sg4
F80.0
sg5
I0
sg6
(dp930
S'SOVIN3O'
p931
(dp932
g10
F100.0
sg11
F3.0
sg12
g931
sg13
F3.0
ssS'MAKOM'
p933
(dp934
g10
F50.0
sg11
F1.0
sg12
g52
sg13
F2.0
sssg14
F5.0
ssS'79250'
p935
(dp936
g3
F4.0
sg4
F100.0
sg5
I0
sg6
(dp937
S'SOVIN3O'
p938
(dp939
g10
F100.0
sg11
F4.0
sg12
g938
sg13
F4.0
sssg14
F4.0
ssS'78552'
p940
(dp941
g3
F1.0
sg4
F100.0
sg5
I0
sg6
(dp942
g603
(dp943
g10
F100.0
sg11
F1.0
sg12
g24
sg13
F1.0
sssg14
F1.0
ssS'792518'
p944
(dp945
g3
F1.0
sg4
F100.0
sg5
I0
sg6
(dp946
S'SOVIN3O'
p947
(dp948
g10
F100.0
sg11
F1.0
sg12
g947
sg13
F1.0
sssg14
F1.0
ssS'792519'
p949
(dp950
g3
I0
sg4
F0.0
sg5
I0
sg6
(dp951
S'SOVIN3O'
p952
(dp953
g10
F0.0
sg11
I0
sg12
g952
sg13
F1.0
sssg14
F1.0
ssS'796544'
p954
(dp955
g3
F1.0
sg4
F100.0
sg5
I0
sg6
(dp956
S'SOVIN3O'
p957
(dp958
g10
F100.0
sg11
F1.0
sg12
g957
sg13
F1.0
sssg14
F1.0
ssS'7821'
p959
(dp960
g3
F1.0
sg4
F100.0
sg5
I0
sg6
(dp961
S'CAPIT'
p962
(dp963
g10
F100.0
sg11
F1.0
sg12
g962
sg13
F1.0
sssg14
F1.0
ssS'79015'
p964
(dp965
g3
F5.0
sg4
F71.428571428571431
sg5
I0
sg6
(dp966
S'SOVIN3O'
p967
(dp968
g10
F71.428571428571431
sg11
F5.0
sg12
g967
sg13
F7.0
sssg14
F7.0
ssS'78462'
p969
(dp970
g3
F4.0
sg4
F100.0
sg5
I0
sg6
(dp971
g798
(dp972
g10
F100.0
sg11
F4.0
sg12
g24
sg13
F4.0
sssg14
F4.0
ssS'49'
p973
(dp974
g3
F1.0
sg4
F100.0
sg5
I0
sg6
(dp975
S'SI2'
p976
(dp977
g10
F100.0
sg11
F1.0
sg12
g976
sg13
F1.0
sssg14
F1.0
ssS'73522'
p978
(dp979
g3
F1.0
sg4
F16.666666666666664
sg5
I0
sg6
(dp980
g775
(dp981
g10
F16.666666666666664
sg11
F1.0
sg12
g24
sg13
F6.0
sssg14
F6.0
ssS'796524'
p982
(dp983
g3
F1.0
sg4
F100.0
sg5
I0
sg6
(dp984
g836
(dp985
g10
F100.0
sg11
F1.0
sg12
g836
sg13
F1.0
sssg14
F1.0
ssS'796462'
p986
(dp987
g3
I0
sg4
F0.0
sg5
I0
sg6
(dp988
S'SOVIN3O'
p989
(dp990
g10
F0.0
sg11
I0
sg12
g989
sg13
F1.0
sssg14
F1.0
ssS'796463'
p991
(dp992
g3
F1.0
sg4
F50.0
sg5
I0
sg6
(dp993
S'SOVIN3O'
p994
(dp995
g10
F50.0
sg11
F1.0
sg12
g994
sg13
F2.0
sssg14
F2.0
ssS'79153'
p996
(dp997
g3
F2.0
sg4
F100.0
sg5
I0
sg6
(dp998
S'MAKOM'
p999
(dp1000
g10
F100.0
sg11
F2.0
sg12
g52
sg13
F2.0
sssg14
F2.0
ssS'79152'
p1001
(dp1002
g3
F3.0
sg4
F60.0
sg5
I0
sg6
(dp1003
S'COMST'
p1004
(dp1005
g10
F0.0
sg11
I0
sg12
g129
sg13
F1.0
ssS'MAKOM'
p1006
(dp1007
g10
F75.0
sg11
F3.0
sg12
g52
sg13
F4.0
sssg14
F5.0
ssS'79151'
p1008
(dp1009
g3
F4.0
sg4
F57.142857142857139
sg5
I0
sg6
(dp1010
S'COMST'
p1011
(dp1012
g10
F100.0
sg11
F2.0
sg12
g129
sg13
F2.0
ssS'MAKOM'
p1013
(dp1014
g10
F40.0
sg11
F2.0
sg12
g52
sg13
F5.0
sssg14
F7.0
ssS'79150'
p1015
(dp1016
g3
F5.0
sg4
F100.0
sg5
I0
sg6
(dp1017
S'COMST'
p1018
(dp1019
g10
F100.0
sg11
F2.0
sg12
g129
sg13
F2.0
ssS'MAKOM'
p1020
(dp1021
g10
F100.0
sg11
F3.0
sg12
g52
sg13
F3.0
sssg14
F5.0
ssS'79154'
p1022
(dp1023
g3
F2.0
sg4
F100.0
sg5
I0
sg6
(dp1024
S'MAKOM'
p1025
(dp1026
g10
F100.0
sg11
F2.0
sg12
g52
sg13
F2.0
sssg14
F2.0
ss.