(dp0
S'4956096888'
p1
(dp2
S'suc_calls'
p3
F10.0
sS'asr'
p4
F100.0
sS'codes'
p5
(dp6
S'7'
p7
(dp8
S'code_asr'
p9
F100.0
sS'code_calls'
p10
F5.0
sS'code_suc_calls'
p11
F5.0
ssS'7495'
p12
(dp13
g9
F100.0
sg10
F5.0
sg11
F5.0
sssS'tg_name'
p14
g1
sS'calls'
p15
F10.0
ssS'4995570600'
p16
(dp17
g3
F271.0
sg4
F25.139146567717997
sg5
(dp18
S'7926'
p19
(dp20
g9
F100.0
sg10
F2.0
sg11
F2.0
ssS'731'
p21
(dp22
g9
F16.666666666666664
sg10
F6.0
sg11
F1.0
ssS'47'
p23
(dp24
g9
F0.0
sg10
F1.0
sg11
I0
ssS'79035'
p25
(dp26
g9
F100.0
sg10
F1.0
sg11
F1.0
ssS'40'
p27
(dp28
g9
F100.0
sg10
F1.0
sg11
F1.0
ssg12
(dp29
g9
F24.541284403669724
sg10
F436.0
sg11
F107.0
ssS'790301'
p30
(dp31
g9
F100.0
sg10
F1.0
sg11
F1.0
ssS'73452'
p32
(dp33
g9
F100.0
sg10
F1.0
sg11
F1.0
ssS'7345'
p34
(dp35
g9
F100.0
sg10
F1.0
sg11
F1.0
ssS'7985'
p36
(dp37
g9
F100.0
sg10
F1.0
sg11
F1.0
ssg7
(dp38
g9
F24.719101123595504
sg10
F623.0
sg11
F154.0
ssS'7482'
p39
(dp40
g9
F0.0
sg10
F2.0
sg11
I0
ssS'7352'
p41
(dp42
g9
F0.0
sg10
F1.0
sg11
I0
ssS'7916'
p43
(dp44
g9
F100.0
sg10
F1.0
sg11
F1.0
sssg14
S'4995570600'
p45
sg15
F1078.0
ssS'4995570648'
p46
(dp47
g3
F36.0
sg4
F69.230769230769226
sg5
(dp48
g7
(dp49
g9
F70.370370370370367
sg10
F27.0
sg11
F19.0
ssg12
(dp50
g9
F68.0
sg10
F25.0
sg11
F17.0
sssg14
g46
sg15
F52.0
ssS'4956096700'
p51
(dp52
g3
F6.0
sg4
F75.0
sg5
(dp53
g7
(dp54
g9
F75.0
sg10
F4.0
sg11
F3.0
ssg12
(dp55
g9
F75.0
sg10
F4.0
sg11
F3.0
sssg14
g51
sg15
F8.0
ssS'4957894542'
p56
(dp57
g3
F6.0
sg4
F100.0
sg5
(dp58
g7
(dp59
g9
F100.0
sg10
F3.0
sg11
F3.0
ssg12
(dp60
g9
F100.0
sg10
F3.0
sg11
F3.0
sssg14
g56
sg15
F6.0
ssS'4992710619'
p61
(dp62
g3
F20.0
sg4
F100.0
sg5
(dp63
S'7499'
p64
(dp65
g9
F100.0
sg10
F10.0
sg11
F10.0
ssg7
(dp66
g9
F100.0
sg10
F10.0
sg11
F10.0
sssg14
g61
sg15
F20.0
ssS'4952211810'
p67
(dp68
g3
F22.0
sg4
F78.571428571428569
sg5
(dp69
g7
(dp70
g9
F78.571428571428569
sg10
F14.0
sg11
F11.0
ssg12
(dp71
g9
F78.571428571428569
sg10
F14.0
sg11
F11.0
sssg14
g67
sg15
F28.0
ssS'DT'
p72
(dp73
g3
F151.0
sg4
F71.904761904761898
sg5
(dp74
S'749644'
p75
(dp76
g9
F100.0
sg10
F1.0
sg11
F1.0
ssS'7812'
p77
(dp78
g9
F80.0
sg10
F5.0
sg11
F4.0
ssS'7813'
p79
(dp80
g9
F100.0
sg10
F2.0
sg11
F2.0
ssS'73422'
p81
(dp82
g9
F0.0
sg10
F1.0
sg11
I0
ssS'74842'
p83
(dp84
g9
F57.142857142857139
sg10
F7.0
sg11
F4.0
ssg34
(dp85
g9
F100.0
sg10
F1.0
sg11
F1.0
ssS'7342'
p86
(dp87
g9
F0.0
sg10
F1.0
sg11
I0
ssS'78617'
p88
(dp89
g9
F100.0
sg10
F1.0
sg11
F1.0
ssS'787934'
p90
(dp91
g9
F100.0
sg10
F1.0
sg11
F1.0
ssg12
(dp92
g9
F85.294117647058826
sg10
F34.0
sg11
F29.0
ssS'7834'
p93
(dp94
g9
F0.0
sg10
F1.0
sg11
I0
ssS'7879'
p95
(dp96
g9
F100.0
sg10
F1.0
sg11
F1.0
ssS'7471'
p97
(dp98
g9
F100.0
sg10
F2.0
sg11
F2.0
ssS'7492'
p99
(dp100
g9
F100.0
sg10
F3.0
sg11
F3.0
ssS'7493'
p101
(dp102
g9
F0.0
sg10
F2.0
sg11
I0
ssS'7496'
p103
(dp104
g9
F100.0
sg10
F1.0
sg11
F1.0
ssS'7494'
p105
(dp106
g9
F100.0
sg10
F1.0
sg11
F1.0
ssS'41'
p107
(dp108
g9
F100.0
sg10
F1.0
sg11
F1.0
ssg32
(dp109
g9
F100.0
sg10
F1.0
sg11
F1.0
ssS'74922'
p110
(dp111
g9
F100.0
sg10
F3.0
sg11
F3.0
ssg7
(dp112
g9
F72.941176470588232
sg10
F85.0
sg11
F62.0
ssS'74942'
p113
(dp114
g9
F100.0
sg10
F1.0
sg11
F1.0
ssS'78432'
p115
(dp116
g9
F100.0
sg10
F1.0
sg11
F1.0
ssS'7472'
p117
(dp118
g9
F100.0
sg10
F1.0
sg11
F1.0
ssS'7473'
p119
(dp120
g9
F25.0
sg10
F4.0
sg11
F1.0
ssS'7474'
p121
(dp122
g9
F40.0
sg10
F5.0
sg11
F2.0
ssS'74712'
p123
(dp124
g9
F100.0
sg10
F2.0
sg11
F2.0
ssS'7391'
p125
(dp126
g9
F50.0
sg10
F2.0
sg11
F1.0
ssS'74964'
p127
(dp128
g9
F100.0
sg10
F1.0
sg11
F1.0
ssS'74732'
p129
(dp130
g9
F25.0
sg10
F4.0
sg11
F1.0
ssS'73512'
p131
(dp132
g9
F100.0
sg10
F1.0
sg11
F1.0
ssS'7351'
p133
(dp134
g9
F100.0
sg10
F1.0
sg11
F1.0
ssS'7484'
p135
(dp136
g9
F66.666666666666657
sg10
F9.0
sg11
F6.0
ssg41
(dp137
g9
F100.0
sg10
F3.0
sg11
F3.0
ssS'7861'
p138
(dp139
g9
F100.0
sg10
F1.0
sg11
F1.0
ssg39
(dp140
g9
F0.0
sg10
F1.0
sg11
I0
ssS'7843'
p141
(dp142
g9
F100.0
sg10
F1.0
sg11
F1.0
ssS'74012'
p143
(dp144
g9
F100.0
sg10
F1.0
sg11
F1.0
ssS'33'
p145
(dp146
g9
F33.333333333333329
sg10
F3.0
sg11
F1.0
ssS'781375'
p147
(dp148
g9
F100.0
sg10
F2.0
sg11
F2.0
ssS'74932'
p149
(dp150
g9
F0.0
sg10
F2.0
sg11
I0
ssS'73522'
p151
(dp152
g9
F100.0
sg10
F3.0
sg11
F3.0
ssS'73912'
p153
(dp154
g9
F50.0
sg10
F2.0
sg11
F1.0
ssS'7401'
p155
(dp156
g9
F33.333333333333329
sg10
F3.0
sg11
F1.0
ssS'78342'
p157
(dp158
g9
F0.0
sg10
F1.0
sg11
I0
sssg14
S'\xd0\x94\xd0\xbe\xd0\xb9\xd1\x87\xd0\xb5 \xd0\xa2\xd0\xb5\xd0\xbb\xd0\xb5\xd0\xba\xd0\xbe\xd0\xbc premium'
p159
sg15
F210.0
ssS'4956379097'
p160
(dp161
g3
F36.0
sg4
F100.0
sg5
(dp162
g7
(dp163
g9
F100.0
sg10
F18.0
sg11
F18.0
ssg12
(dp164
g9
F100.0
sg10
F18.0
sg11
F18.0
sssg14
g160
sg15
F36.0
ssS'CTELM'
p165
(dp166
g3
F24.0
sg4
F92.307692307692307
sg5
(dp167
g64
(dp168
g9
F100.0
sg10
F3.0
sg11
F3.0
ssg7
(dp169
g9
F92.307692307692307
sg10
F13.0
sg11
F12.0
ssg12
(dp170
g9
F90.0
sg10
F10.0
sg11
F9.0
sssg14
g165
sg15
F26.0
ssS'SOVIN3O'
p171
(dp172
g3
F291.0
sg4
F61.783439490445858
sg5
(dp173
g19
(dp174
g9
F60.377358490566039
sg10
F53.0
sg11
F32.0
ssS'79099'
p175
(dp176
g9
F83.333333333333343
sg10
F6.0
sg11
F5.0
ssS'79671'
p177
(dp178
g9
F66.666666666666657
sg10
F3.0
sg11
F2.0
ssS'79636'
p179
(dp180
g9
F57.142857142857139
sg10
F7.0
sg11
F4.0
ssS'79651'
p181
(dp182
g9
F100.0
sg10
F4.0
sg11
F4.0
ssS'79652'
p183
(dp184
g9
F100.0
sg10
F2.0
sg11
F2.0
ssS'79653'
p185
(dp186
g9
F66.666666666666657
sg10
F3.0
sg11
F2.0
ssS'7925424'
p187
(dp188
g9
F0.0
sg10
F1.0
sg11
I0
ssS'79295'
p189
(dp190
g9
F100.0
sg10
F3.0
sg11
F3.0
ssS'79296'
p191
(dp192
g9
F100.0
sg10
F1.0
sg11
F1.0
ssS'79629'
p193
(dp194
g9
F100.0
sg10
F5.0
sg11
F5.0
ssS'790916'
p195
(dp196
g9
F0.0
sg10
F2.0
sg11
I0
ssS'790396'
p197
(dp198
g9
F66.666666666666657
sg10
F3.0
sg11
F2.0
ssS'790397'
p199
(dp200
g9
F100.0
sg10
F1.0
sg11
F1.0
ssS'79250'
p201
(dp202
g9
F20.0
sg10
F5.0
sg11
F1.0
ssS'796396'
p203
(dp204
g9
F100.0
sg10
F1.0
sg11
F1.0
ssS'796378'
p205
(dp206
g9
F50.0
sg10
F2.0
sg11
F1.0
ssS'79688'
p207
(dp208
g9
F100.0
sg10
F1.0
sg11
F1.0
ssS'79258'
p209
(dp210
g9
F0.0
sg10
F2.0
sg11
I0
ssS'79686'
p211
(dp212
g9
F66.666666666666657
sg10
F3.0
sg11
F2.0
ssS'796372'
p213
(dp214
g9
F100.0
sg10
F1.0
sg11
F1.0
ssS'79299'
p215
(dp216
g9
F50.0
sg10
F2.0
sg11
F1.0
ssS'790367'
p217
(dp218
g9
F50.0
sg10
F2.0
sg11
F1.0
ssS'790366'
p219
(dp220
g9
F100.0
sg10
F1.0
sg11
F1.0
ssS'792518'
p221
(dp222
g9
F0.0
sg10
F1.0
sg11
I0
ssS'790362'
p223
(dp224
g9
F0.0
sg10
F2.0
sg11
I0
ssS'790361'
p225
(dp226
g9
F75.0
sg10
F4.0
sg11
F3.0
ssS'796472'
p227
(dp228
g9
F100.0
sg10
F1.0
sg11
F1.0
ssg7
(dp229
g9
F61.702127659574465
sg10
F235.0
sg11
F145.0
ssS'790300'
p230
(dp231
g9
F100.0
sg10
F1.0
sg11
F1.0
ssS'79060'
p232
(dp233
g9
F37.5
sg10
F8.0
sg11
F3.0
ssS'79067'
p234
(dp235
g9
F63.636363636363633
sg10
F11.0
sg11
F7.0
ssS'796452'
p236
(dp237
g9
F0.0
sg10
F1.0
sg11
I0
ssS'796451'
p238
(dp239
g9
F100.0
sg10
F1.0
sg11
F1.0
ssS'790368'
p240
(dp241
g9
F100.0
sg10
F1.0
sg11
F1.0
ssS'7925507'
p242
(dp243
g9
F100.0
sg10
F1.0
sg11
F1.0
ssS'796463'
p244
(dp245
g9
F100.0
sg10
F1.0
sg11
F1.0
ssS'792537'
p246
(dp247
g9
F0.0
sg10
F1.0
sg11
I0
ssS'796459'
p248
(dp249
g9
F100.0
sg10
F1.0
sg11
F1.0
ssS'796457'
p250
(dp251
g9
F100.0
sg10
F1.0
sg11
F1.0
ssS'796543'
p252
(dp253
g9
F50.0
sg10
F2.0
sg11
F1.0
ssS'796521'
p254
(dp255
g9
F100.0
sg10
F1.0
sg11
F1.0
ssS'796525'
p256
(dp257
g9
F100.0
sg10
F1.0
sg11
F1.0
ssS'792514'
p258
(dp259
g9
F100.0
sg10
F1.0
sg11
F1.0
ssS'790969'
p260
(dp261
g9
F50.0
sg10
F4.0
sg11
F2.0
ssS'79689'
p262
(dp263
g9
F100.0
sg10
F1.0
sg11
F1.0
ssS'79015'
p264
(dp265
g9
F50.0
sg10
F2.0
sg11
F1.0
ssS'79031'
p266
(dp267
g9
F68.75
sg10
F16.0
sg11
F11.0
ssS'79032'
p268
(dp269
g9
F41.666666666666671
sg10
F12.0
sg11
F5.0
ssS'790966'
p270
(dp271
g9
F100.0
sg10
F1.0
sg11
F1.0
ssg25
(dp272
g9
F41.666666666666671
sg10
F12.0
sg11
F5.0
ssS'79037'
p273
(dp274
g9
F53.846153846153847
sg10
F13.0
sg11
F7.0
ssS'7925245'
p275
(dp276
g9
F100.0
sg10
F1.0
sg11
F1.0
ssS'7925304'
p277
(dp278
g9
F0.0
sg10
F1.0
sg11
I0
ssS'79057'
p279
(dp280
g9
F80.0
sg10
F10.0
sg11
F8.0
ssS'79055'
p281
(dp282
g9
F71.428571428571431
sg10
F7.0
sg11
F5.0
ssS'790967'
p283
(dp284
g9
F100.0
sg10
F1.0
sg11
F1.0
sssg14
S'SOVIN3O'
p285
sg15
F471.0
ssS'4957883888'
p286
(dp287
g3
F44.0
sg4
F95.652173913043484
sg5
(dp288
g7
(dp289
g9
F95.652173913043484
sg10
F23.0
sg11
F22.0
ssg12
(dp290
g9
F95.652173913043484
sg10
F23.0
sg11
F22.0
sssg14
g286
sg15
F46.0
ssS'MAST'
p291
(dp292
g3
F2.0
sg4
F100.0
sg5
(dp293
g7
(dp294
g9
F100.0
sg10
F1.0
sg11
F1.0
ssg12
(dp295
g9
F100.0
sg10
F1.0
sg11
F1.0
sssg14
g291
sg15
F2.0
ssS'4957894587'
p296
(dp297
g3
F6.0
sg4
F60.0
sg5
(dp298
g7
(dp299
g9
F60.0
sg10
F5.0
sg11
F3.0
ssg12
(dp300
g9
F60.0
sg10
F5.0
sg11
F3.0
sssg14
g296
sg15
F10.0
ssS'4956096090'
p301
(dp302
g3
F10.0
sg4
F100.0
sg5
(dp303
g7
(dp304
g9
F100.0
sg10
F5.0
sg11
F5.0
ssg12
(dp305
g9
F100.0
sg10
F5.0
sg11
F5.0
sssg14
g301
sg15
F10.0
ssS'4957873181'
p306
(dp307
g3
F32.0
sg4
F100.0
sg5
(dp308
g7
(dp309
g9
F100.0
sg10
F16.0
sg11
F16.0
ssg12
(dp310
g9
F100.0
sg10
F16.0
sg11
F16.0
sssg14
g306
sg15
F32.0
ssS'COMST'
p311
(dp312
g3
F346.0
sg4
F68.787276341948314
sg5
(dp313
g64
(dp314
g9
F54.54545454545454
sg10
F22.0
sg11
F12.0
ssS'79150'
p315
(dp316
g9
F100.0
sg10
F2.0
sg11
F2.0
ssg12
(dp317
g9
F72.781065088757401
sg10
F169.0
sg11
F123.0
ssS'79153'
p318
(dp319
g9
F62.5
sg10
F8.0
sg11
F5.0
ssS'7910000'
p320
(dp321
g9
F100.0
sg10
F2.0
sg11
F2.0
ssS'967'
p322
(dp323
g9
F0.0
sg10
F1.0
sg11
I0
ssg36
(dp324
g9
F72.727272727272734
sg10
F11.0
sg11
F8.0
ssg7
(dp325
g9
F68.924302788844628
sg10
F251.0
sg11
F173.0
ssS'79175'
p326
(dp327
g9
F50.0
sg10
F4.0
sg11
F2.0
ssS'79152'
p328
(dp329
g9
F100.0
sg10
F1.0
sg11
F1.0
ssS'791976'
p330
(dp331
g9
F0.0
sg10
F1.0
sg11
I0
ssg43
(dp332
g9
F57.142857142857139
sg10
F28.0
sg11
F16.0
ssS'79154'
p333
(dp334
g9
F66.666666666666657
sg10
F3.0
sg11
F2.0
sssg14
S'\xd0\x9c\xd0\xa2\xd0\xa1 (\xd0\x9a\xd0\x9e\xd0\x9c\xd0\xa1\xd0\xa2\xd0\x90\xd0\xa0) \xd0\xb7\xd0\xbe\xd0\xbd\xd0\xb0-\xd0\xb7\xd0\xbe\xd0\xbd\xd0\xb0'
p335
sg15
F503.0
ssS'4959264300'
p336
(dp337
g3
F4.0
sg4
F100.0
sg5
(dp338
g7
(dp339
g9
F100.0
sg10
F2.0
sg11
F2.0
ssg12
(dp340
g9
F100.0
sg10
F2.0
sg11
F2.0
sssg14
g336
sg15
F4.0
ssS'COUNT'
p341
(dp342
g3
F6.0
sg4
F75.0
sg5
(dp343
g64
(dp344
g9
F100.0
sg10
F1.0
sg11
F1.0
ssg7
(dp345
g9
F75.0
sg10
F4.0
sg11
F3.0
ssg12
(dp346
g9
F66.666666666666657
sg10
F3.0
sg11
F2.0
sssg14
S'\xd0\x9a\xd0\xb0\xd0\xbd\xd1\x82\xd1\x80\xd0\xb8\xd0\x9a\xd0\xbe\xd0\xbc \xd0\xbc\xd0\xb5\xd1\x81\xd1\x82\xd0\xbd\xd0\xb0\xd1\x8f'
p347
sg15
F8.0
ssS'EKVA'
p348
(dp349
g3
F4.0
sg4
F100.0
sg5
(dp350
g7
(dp351
g9
F100.0
sg10
F2.0
sg11
F2.0
ssg12
(dp352
g9
F100.0
sg10
F2.0
sg11
F2.0
sssg14
S'\xd0\xad\xd0\xba\xd0\xb2\xd0\xb0\xd0\xbd\xd1\x82_FC'
p353
sg15
F4.0
ssS'4950000438'
p354
(dp355
g3
F6.0
sg4
F75.0
sg5
(dp356
g7
(dp357
g9
F75.0
sg10
F4.0
sg11
F3.0
ssg12
(dp358
g9
F75.0
sg10
F4.0
sg11
F3.0
sssg14
g354
sg15
F8.0
ssS'4957894320'
p359
(dp360
g3
F6.0
sg4
F100.0
sg5
(dp361
g7
(dp362
g9
F100.0
sg10
F3.0
sg11
F3.0
ssg12
(dp363
g9
F100.0
sg10
F3.0
sg11
F3.0
sssg14
g359
sg15
F6.0
ssS'4950000434'
p364
(dp365
g3
F8.0
sg4
F66.666666666666657
sg5
(dp366
g7
(dp367
g9
F66.666666666666657
sg10
F6.0
sg11
F4.0
ssg12
(dp368
g9
F66.666666666666657
sg10
F6.0
sg11
F4.0
sssg14
g364
sg15
F12.0
ssS'4950000456'
p369
(dp370
g3
F6.0
sg4
F75.0
sg5
(dp371
g7
(dp372
g9
F75.0
sg10
F4.0
sg11
F3.0
ssg12
(dp373
g9
F75.0
sg10
F4.0
sg11
F3.0
sssg14
g369
sg15
F8.0
ssS'4950000455'
p374
(dp375
g3
F10.0
sg4
F100.0
sg5
(dp376
g7
(dp377
g9
F100.0
sg10
F5.0
sg11
F5.0
ssg12
(dp378
g9
F100.0
sg10
F5.0
sg11
F5.0
sssg14
g374
sg15
F10.0
ssS'4950000425'
p379
(dp380
g3
F12.0
sg4
F75.0
sg5
(dp381
g7
(dp382
g9
F75.0
sg10
F8.0
sg11
F6.0
ssg12
(dp383
g9
F75.0
sg10
F8.0
sg11
F6.0
sssg14
g379
sg15
F16.0
ssS'4957894615'
p384
(dp385
g3
F6.0
sg4
F100.0
sg5
(dp386
g7
(dp387
g9
F100.0
sg10
F3.0
sg11
F3.0
ssg12
(dp388
g9
F100.0
sg10
F3.0
sg11
F3.0
sssg14
g384
sg15
F6.0
ssS'WCALL'
p389
(dp390
g3
F6.0
sg4
F100.0
sg5
(dp391
g7
(dp392
g9
F100.0
sg10
F3.0
sg11
F3.0
ssg12
(dp393
g9
F100.0
sg10
F3.0
sg11
F3.0
sssg14
S'\xd0\x92\xd0\xb5\xd1\x81\xd1\x82 \xd0\x9a\xd0\xbe\xd0\xbb\xd0\xbb'
p394
sg15
F6.0
ssS'4957894483'
p395
(dp396
g3
F2.0
sg4
F100.0
sg5
(dp397
g7
(dp398
g9
F100.0
sg10
F1.0
sg11
F1.0
ssg12
(dp399
g9
F100.0
sg10
F1.0
sg11
F1.0
sssg14
g395
sg15
F2.0
ssS'4957894433'
p400
(dp401
g3
F12.0
sg4
F100.0
sg5
(dp402
g7
(dp403
g9
F100.0
sg10
F6.0
sg11
F6.0
ssg12
(dp404
g9
F100.0
sg10
F6.0
sg11
F6.0
sssg14
g400
sg15
F12.0
ssS'4957894450'
p405
(dp406
g3
F2.0
sg4
F50.0
sg5
(dp407
g7
(dp408
g9
F50.0
sg10
F2.0
sg11
F1.0
ssg12
(dp409
g9
F50.0
sg10
F2.0
sg11
F1.0
sssg14
g405
sg15
F4.0
ssS'SI2'
p410
(dp411
g3
F13.0
sg4
F46.428571428571431
sg5
(dp412
S'800'
p413
(dp414
g9
F100.0
sg10
F1.0
sg11
F1.0
ssS'49'
p415
(dp416
g9
F37.5
sg10
F8.0
sg11
F3.0
ssS'44'
p417
(dp418
g9
F100.0
sg10
F4.0
sg11
F4.0
ssg12
(dp419
g9
F0.0
sg10
F5.0
sg11
I0
ssS'1'
p420
(dp421
g9
F100.0
sg10
F2.0
sg11
F2.0
ssg7
(dp422
g9
F16.666666666666664
sg10
F6.0
sg11
F1.0
ssg107
(dp423
g9
F100.0
sg10
F1.0
sg11
F1.0
ssg43
(dp424
g9
F100.0
sg10
F1.0
sg11
F1.0
sssg14
S'SI2'
p425
sg15
F28.0
ssS'CAPIT'
p426
(dp427
g3
F70.0
sg4
F53.030303030303031
sg5
(dp428
S'78722'
p429
(dp430
g9
F100.0
sg10
F1.0
sg11
F1.0
ssg77
(dp431
g9
F83.333333333333343
sg10
F6.0
sg11
F5.0
ssg79
(dp432
g9
F100.0
sg10
F1.0
sg11
F1.0
ssS'7483'
p433
(dp434
g9
F66.666666666666657
sg10
F3.0
sg11
F2.0
ssS'7818'
p435
(dp436
g9
F0.0
sg10
F2.0
sg11
I0
ssS'7346'
p437
(dp438
g9
F0.0
sg10
F1.0
sg11
I0
ssS'7347'
p439
(dp440
g9
F100.0
sg10
F1.0
sg11
F1.0
ssS'7343'
p441
(dp442
g9
F100.0
sg10
F1.0
sg11
F1.0
ssS'7872'
p443
(dp444
g9
F100.0
sg10
F1.0
sg11
F1.0
ssS'7382'
p445
(dp446
g9
F100.0
sg10
F2.0
sg11
F2.0
ssS'7835'
p447
(dp448
g9
F0.0
sg10
F1.0
sg11
I0
ssS'781369'
p449
(dp450
g9
F100.0
sg10
F1.0
sg11
F1.0
ssg12
(dp451
g9
F0.0
sg10
F7.0
sg11
I0
ssg7
(dp452
g9
F51.5625
sg10
F64.0
sg11
F33.0
ssS'420'
p453
(dp454
g9
F100.0
sg10
F1.0
sg11
F1.0
ssg117
(dp455
g9
F50.0
sg10
F4.0
sg11
F2.0
ssg119
(dp456
g9
F0.0
sg10
F3.0
sg11
I0
ssS'78352'
p457
(dp458
g9
F0.0
sg10
F1.0
sg11
I0
ssg123
(dp459
g9
F100.0
sg10
F1.0
sg11
F1.0
ssS'74832'
p460
(dp461
g9
F50.0
sg10
F2.0
sg11
F1.0
ssS'73432'
p462
(dp463
g9
F100.0
sg10
F1.0
sg11
F1.0
ssS'74812'
p464
(dp465
g9
F0.0
sg10
F1.0
sg11
I0
ssS'73472'
p466
(dp467
g9
F100.0
sg10
F1.0
sg11
F1.0
ssg129
(dp468
g9
F0.0
sg10
F3.0
sg11
I0
ssS'380'
p469
(dp470
g9
F80.0
sg10
F5.0
sg11
F4.0
ssS'7487'
p471
(dp472
g9
F0.0
sg10
F1.0
sg11
I0
ssS'7486'
p473
(dp474
g9
F66.666666666666657
sg10
F3.0
sg11
F2.0
ssS'7481'
p475
(dp476
g9
F0.0
sg10
F1.0
sg11
I0
ssS'38044'
p477
(dp478
g9
F100.0
sg10
F2.0
sg11
F2.0
ssg97
(dp479
g9
F100.0
sg10
F1.0
sg11
F1.0
ssS'7845'
p480
(dp481
g9
F66.666666666666657
sg10
F3.0
sg11
F2.0
ssS'7846'
p482
(dp483
g9
F100.0
sg10
F1.0
sg11
F1.0
ssS'73823'
p484
(dp485
g9
F100.0
sg10
F2.0
sg11
F2.0
ssS'781852'
p486
(dp487
g9
F0.0
sg10
F2.0
sg11
I0
ssS'372'
p488
(dp489
g9
F100.0
sg10
F1.0
sg11
F1.0
sssg14
S'CAPIT'
p490
sg15
F132.0
ssS'MAKOM'
p491
(dp492
g3
F256.0
sg4
F74.20289855072464
sg5
(dp493
g175
(dp494
g9
F66.666666666666657
sg10
F6.0
sg11
F4.0
ssS'79672'
p495
(dp496
g9
F40.0
sg10
F5.0
sg11
F2.0
ssg177
(dp497
g9
F100.0
sg10
F1.0
sg11
F1.0
ssg179
(dp498
g9
F100.0
sg10
F2.0
sg11
F2.0
ssS'791999'
p499
(dp500
g9
F100.0
sg10
F1.0
sg11
F1.0
ssg185
(dp501
g9
F100.0
sg10
F3.0
sg11
F3.0
ssS'7910002'
p502
(dp503
g9
F0.0
sg10
F1.0
sg11
I0
ssS'790915'
p504
(dp505
g9
F100.0
sg10
F1.0
sg11
F1.0
ssg12
(dp506
g9
F0.0
sg10
F1.0
sg11
I0
ssg197
(dp507
g9
F100.0
sg10
F1.0
sg11
F1.0
ssS'796236'
p508
(dp509
g9
F100.0
sg10
F1.0
sg11
F1.0
ssg207
(dp510
g9
F100.0
sg10
F1.0
sg11
F1.0
ssS'79687'
p511
(dp512
g9
F100.0
sg10
F2.0
sg11
F2.0
ssS'79104'
p513
(dp514
g9
F66.666666666666657
sg10
F6.0
sg11
F4.0
ssg43
(dp515
g9
F68.518518518518519
sg10
F54.0
sg11
F37.0
ssg217
(dp516
g9
F100.0
sg10
F2.0
sg11
F2.0
ssg219
(dp517
g9
F100.0
sg10
F1.0
sg11
F1.0
ssg223
(dp518
g9
F50.0
sg10
F2.0
sg11
F1.0
ssg7
(dp519
g9
F74.418604651162795
sg10
F172.0
sg11
F128.0
ssg232
(dp520
g9
F100.0
sg10
F5.0
sg11
F5.0
ssg234
(dp521
g9
F50.0
sg10
F4.0
sg11
F2.0
ssg236
(dp522
g9
F50.0
sg10
F2.0
sg11
F1.0
ssg36
(dp523
g9
F75.0
sg10
F12.0
sg11
F9.0
ssg193
(dp524
g9
F80.0
sg10
F5.0
sg11
F4.0
ssg225
(dp525
g9
F100.0
sg10
F1.0
sg11
F1.0
ssS'796527'
p526
(dp527
g9
F0.0
sg10
F1.0
sg11
I0
ssg318
(dp528
g9
F100.0
sg10
F1.0
sg11
F1.0
ssg183
(dp529
g9
F50.0
sg10
F2.0
sg11
F1.0
ssS'796520'
p530
(dp531
g9
F100.0
sg10
F1.0
sg11
F1.0
ssg315
(dp532
g9
F50.0
sg10
F2.0
sg11
F1.0
ssg260
(dp533
g9
F66.666666666666657
sg10
F3.0
sg11
F2.0
ssS'790965'
p534
(dp535
g9
F100.0
sg10
F1.0
sg11
F1.0
ssg266
(dp536
g9
F85.714285714285708
sg10
F7.0
sg11
F6.0
ssg268
(dp537
g9
F62.5
sg10
F8.0
sg11
F5.0
ssg270
(dp538
g9
F100.0
sg10
F1.0
sg11
F1.0
ssg25
(dp539
g9
F88.888888888888886
sg10
F9.0
sg11
F8.0
ssg273
(dp540
g9
F100.0
sg10
F7.0
sg11
F7.0
ssg326
(dp541
g9
F0.0
sg10
F1.0
sg11
I0
ssg279
(dp542
g9
F100.0
sg10
F2.0
sg11
F2.0
ssS'79151'
p543
(dp544
g9
F100.0
sg10
F2.0
sg11
F2.0
ssg281
(dp545
g9
F100.0
sg10
F2.0
sg11
F2.0
ssg333
(dp546
g9
F66.666666666666657
sg10
F3.0
sg11
F2.0
sssg14
S'\xd0\x9c\xd0\xb0\xd0\xba\xd0\xbe\xd0\xbc\xd0\xbd\xd0\xb5\xd1\x82'
p547
sg15
F345.0
ssS'SI'
p548
(dp549
g3
F528.0
sg4
F80.121396054628221
sg5
(dp550
g123
(dp551
g9
F100.0
sg10
F1.0
sg11
F1.0
ssg77
(dp552
g9
F100.0
sg10
F2.0
sg11
F2.0
ssg477
(dp553
g9
F100.0
sg10
F2.0
sg11
F2.0
ssS'7800'
p554
(dp555
g9
F100.0
sg10
F1.0
sg11
F1.0
ssS'7831'
p556
(dp557
g9
F100.0
sg10
F1.0
sg11
F1.0
ssS'86'
p558
(dp559
g9
F100.0
sg10
F2.0
sg11
F2.0
ssg447
(dp560
g9
F100.0
sg10
F3.0
sg11
F3.0
ssg64
(dp561
g9
F70.454545454545453
sg10
F44.0
sg11
F31.0
ssS'48'
p562
(dp563
g9
F100.0
sg10
F1.0
sg11
F1.0
ssg101
(dp564
g9
F100.0
sg10
F1.0
sg11
F1.0
ssg417
(dp565
g9
F100.0
sg10
F1.0
sg11
F1.0
ssg513
(dp566
g9
F66.666666666666657
sg10
F3.0
sg11
F2.0
ssg12
(dp567
g9
F84.507042253521121
sg10
F213.0
sg11
F180.0
ssg7
(dp568
g9
F78.915662650602414
sg10
F332.0
sg11
F262.0
ssg97
(dp569
g9
F100.0
sg10
F1.0
sg11
F1.0
ssg457
(dp570
g9
F100.0
sg10
F3.0
sg11
F3.0
ssg19
(dp571
g9
F70.588235294117652
sg10
F34.0
sg11
F24.0
ssS'78612'
p572
(dp573
g9
F50.0
sg10
F2.0
sg11
F1.0
ssS'78632'
p574
(dp575
g9
F50.0
sg10
F2.0
sg11
F1.0
ssS'74852'
p576
(dp577
g9
F100.0
sg10
F1.0
sg11
F1.0
ssg469
(dp578
g9
F100.0
sg10
F2.0
sg11
F2.0
ssS'7863'
p579
(dp580
g9
F50.0
sg10
F2.0
sg11
F1.0
ssg138
(dp581
g9
F66.666666666666657
sg10
F3.0
sg11
F2.0
ssS'7485'
p582
(dp583
g9
F100.0
sg10
F1.0
sg11
F1.0
ssg149
(dp584
g9
F100.0
sg10
F1.0
sg11
F1.0
sssg14
S'SI'
p585
sg15
F659.0
ssS'SOVIN'
p586
(dp587
g3
F60.0
sg4
F76.923076923076934
sg5
(dp588
g64
(dp589
g9
F57.142857142857139
sg10
F14.0
sg11
F8.0
ssg7
(dp590
g9
F76.923076923076934
sg10
F39.0
sg11
F30.0
ssg12
(dp591
g9
F88.0
sg10
F25.0
sg11
F22.0
sssg14
S'\xd0\x92\xd1\x8b\xd0\xbc\xd0\xbf\xd0\xb5\xd0\xbb\xd0\x9a\xd0\xbe\xd0\xbc \xd0\xb4\xd0\xbe\xd0\xb3.JF053'
p592
sg15
F78.0
ssS'4956096111'
p593
(dp594
g3
F4.0
sg4
F2.197802197802198
sg5
(dp595
g7
(dp596
g9
F2.197802197802198
sg10
F91.0
sg11
F2.0
ssg12
(dp597
g9
F2.197802197802198
sg10
F91.0
sg11
F2.0
sssg14
g593
sg15
F182.0
ssS'MTRX'
p598
(dp599
g3
F10.0
sg4
F45.454545454545453
sg5
(dp600
g7
(dp601
g9
F45.454545454545453
sg10
F11.0
sg11
F5.0
ssg12
(dp602
g9
F45.454545454545453
sg10
F11.0
sg11
F5.0
sssg14
S'\xd0\x9c\xd0\xb0\xd1\x82\xd1\x80\xd0\xb8\xd0\xba\xd1\x81 \xd0\xa2\xd0\xb5\xd0\xbb\xd0\xb5\xd0\xba\xd0\xbe\xd0\xbc \xd0\xb7\xd0\xbe\xd0\xbd\xd0\xb0-\xd0\xb7\xd0\xbe\xd0\xbd\xd0\xb0'
p603
sg15
F22.0
ss.