(dp0
S'4992710619'
p1
(dp2
S'suc_calls'
p3
F8.0
sS'asr'
p4
F100.0
sS'codes'
p5
(dp6
S'7499'
p7
(dp8
S'code_asr'
p9
F100.0
sS'code_calls'
p10
F4.0
sS'code_suc_calls'
p11
F4.0
ssS'7'
p12
(dp13
g9
F100.0
sg10
F4.0
sg11
F4.0
sssS'tg_name'
p14
g1
sS'calls'
p15
F8.0
ssS'EKVA'
p16
(dp17
g3
F12.0
sg4
F85.714285714285708
sg5
(dp18
g12
(dp19
g9
F85.714285714285708
sg10
F7.0
sg11
F6.0
ssS'7495'
p20
(dp21
g9
F85.714285714285708
sg10
F7.0
sg11
F6.0
sssg14
S'\xd0\xad\xd0\xba\xd0\xb2\xd0\xb0\xd0\xbd\xd1\x82_FC'
p22
sg15
F14.0
ssS'4995570648'
p23
(dp24
g3
F38.0
sg4
F95.0
sg5
(dp25
g12
(dp26
g9
F95.238095238095227
sg10
F21.0
sg11
F20.0
ssg20
(dp27
g9
F94.73684210526315
sg10
F19.0
sg11
F18.0
sssg14
g23
sg15
F40.0
ssS'4956096700'
p28
(dp29
g3
F2.0
sg4
F100.0
sg5
(dp30
g12
(dp31
g9
F100.0
sg10
F1.0
sg11
F1.0
ssg20
(dp32
g9
F100.0
sg10
F1.0
sg11
F1.0
sssg14
g28
sg15
F2.0
ssS'4957894542'
p33
(dp34
g3
F4.0
sg4
F100.0
sg5
(dp35
g12
(dp36
g9
F100.0
sg10
F2.0
sg11
F2.0
ssg20
(dp37
g9
F100.0
sg10
F2.0
sg11
F2.0
sssg14
g33
sg15
F4.0
ssS'4956096090'
p38
(dp39
g3
F12.0
sg4
F100.0
sg5
(dp40
g12
(dp41
g9
F100.0
sg10
F6.0
sg11
F6.0
ssg20
(dp42
g9
F100.0
sg10
F6.0
sg11
F6.0
sssg14
g38
sg15
F12.0
ssS'4952211810'
p43
(dp44
g3
F10.0
sg4
F71.428571428571431
sg5
(dp45
g12
(dp46
g9
F71.428571428571431
sg10
F7.0
sg11
F5.0
ssg20
(dp47
g9
F71.428571428571431
sg10
F7.0
sg11
F5.0
sssg14
g43
sg15
F14.0
ssS'DT'
p48
(dp49
g3
F132.0
sg4
F60.550458715596335
sg5
(dp50
S'7812'
p51
(dp52
g9
F100.0
sg10
F1.0
sg11
F1.0
ssS'73422'
p53
(dp54
g9
F100.0
sg10
F1.0
sg11
F1.0
ssS'7347'
p55
(dp56
g9
F0.0
sg10
F3.0
sg11
I0
ssS'7342'
p57
(dp58
g9
F100.0
sg10
F1.0
sg11
F1.0
ssS'7343'
p59
(dp60
g9
F100.0
sg10
F1.0
sg11
F1.0
ssS'7855'
p61
(dp62
g9
F100.0
sg10
F1.0
sg11
F1.0
ssS'749673'
p63
(dp64
g9
F0.0
sg10
F1.0
sg11
I0
ssS'783146'
p65
(dp66
g9
F100.0
sg10
F1.0
sg11
F1.0
ssS'749676'
p67
(dp68
g9
F100.0
sg10
F1.0
sg11
F1.0
ssS'74742'
p69
(dp70
g9
F50.0
sg10
F2.0
sg11
F1.0
ssg7
(dp71
g9
F100.0
sg10
F3.0
sg11
F3.0
ssS'7496'
p72
(dp73
g9
F66.666666666666657
sg10
F3.0
sg11
F2.0
ssS'73522'
p74
(dp75
g9
F16.666666666666664
sg10
F6.0
sg11
F1.0
ssg20
(dp76
g9
F60.0
sg10
F45.0
sg11
F27.0
ssS'7831'
p77
(dp78
g9
F100.0
sg10
F1.0
sg11
F1.0
ssg12
(dp79
g9
F60.439560439560438
sg10
F91.0
sg11
F55.0
ssS'7472'
p80
(dp81
g9
F50.0
sg10
F2.0
sg11
F1.0
ssS'7473'
p82
(dp83
g9
F75.0
sg10
F4.0
sg11
F3.0
ssS'7474'
p84
(dp85
g9
F50.0
sg10
F2.0
sg11
F1.0
ssS'7475'
p86
(dp87
g9
F50.0
sg10
F4.0
sg11
F2.0
ssS'73432'
p88
(dp89
g9
F100.0
sg10
F1.0
sg11
F1.0
ssS'74964'
p90
(dp91
g9
F100.0
sg10
F1.0
sg11
F1.0
ssS'74732'
p92
(dp93
g9
F75.0
sg10
F4.0
sg11
F3.0
ssS'74852'
p94
(dp95
g9
F100.0
sg10
F1.0
sg11
F1.0
ssS'74855'
p96
(dp97
g9
F0.0
sg10
F2.0
sg11
I0
ssS'78552'
p98
(dp99
g9
F100.0
sg10
F1.0
sg11
F1.0
ssS'7485'
p100
(dp101
g9
F33.333333333333329
sg10
F3.0
sg11
F1.0
ssS'7487'
p102
(dp103
g9
F100.0
sg10
F3.0
sg11
F3.0
ssS'7486'
p104
(dp105
g9
F50.0
sg10
F2.0
sg11
F1.0
ssS'7863'
p106
(dp107
g9
F0.0
sg10
F1.0
sg11
I0
ssS'749644'
p108
(dp109
g9
F100.0
sg10
F1.0
sg11
F1.0
ssS'7482'
p110
(dp111
g9
F100.0
sg10
F1.0
sg11
F1.0
ssS'7846'
p112
(dp113
g9
F100.0
sg10
F4.0
sg11
F4.0
ssS'33'
p114
(dp115
g9
F66.666666666666657
sg10
F6.0
sg11
F4.0
ssS'31'
p116
(dp117
g9
F0.0
sg10
F1.0
sg11
I0
ssS'74862'
p118
(dp119
g9
F50.0
sg10
F2.0
sg11
F1.0
ssS'7352'
p120
(dp121
g9
F16.666666666666664
sg10
F6.0
sg11
F1.0
ssS'78462'
p122
(dp123
g9
F100.0
sg10
F4.0
sg11
F4.0
sssg14
S'\xd0\x94\xd0\xbe\xd0\xb9\xd1\x87\xd0\xb5 \xd0\xa2\xd0\xb5\xd0\xbb\xd0\xb5\xd0\xba\xd0\xbe\xd0\xbc premium'
p124
sg15
F218.0
ssS'4951111111'
p125
(dp126
g3
I0
sg4
F0.0
sg5
(dp127
g12
(dp128
g9
F0.0
sg10
F17.0
sg11
I0
ssg20
(dp129
g9
F0.0
sg10
F17.0
sg11
I0
sssg14
g125
sg15
F34.0
ssS'4956096888'
p130
(dp131
g3
F6.0
sg4
F100.0
sg5
(dp132
g12
(dp133
g9
F100.0
sg10
F3.0
sg11
F3.0
ssg20
(dp134
g9
F100.0
sg10
F3.0
sg11
F3.0
sssg14
g130
sg15
F6.0
ssS'4956379097'
p135
(dp136
g3
F4.0
sg4
F100.0
sg5
(dp137
g12
(dp138
g9
F100.0
sg10
F2.0
sg11
F2.0
ssg20
(dp139
g9
F100.0
sg10
F2.0
sg11
F2.0
sssg14
g135
sg15
F4.0
ssS'4957894525'
p140
(dp141
g3
F2.0
sg4
F100.0
sg5
(dp142
g12
(dp143
g9
F100.0
sg10
F1.0
sg11
F1.0
ssg20
(dp144
g9
F100.0
sg10
F1.0
sg11
F1.0
sssg14
g140
sg15
F2.0
ssS'CTELM'
p145
(dp146
g3
F38.0
sg4
F86.36363636363636
sg5
(dp147
g7
(dp148
g9
F100.0
sg10
F2.0
sg11
F2.0
ssg12
(dp149
g9
F86.36363636363636
sg10
F22.0
sg11
F19.0
ssg20
(dp150
g9
F85.0
sg10
F20.0
sg11
F17.0
sssg14
g145
sg15
F44.0
ssS'SOVIN3O'
p151
(dp152
g3
F324.0
sg4
F64.670658682634723
sg5
(dp153
S'7925514'
p154
(dp155
g9
F50.0
sg10
F2.0
sg11
F1.0
ssS'79629'
p156
(dp157
g9
F100.0
sg10
F3.0
sg11
F3.0
ssS'792520'
p158
(dp159
g9
F100.0
sg10
F1.0
sg11
F1.0
ssS'79672'
p160
(dp161
g9
F100.0
sg10
F3.0
sg11
F3.0
ssS'79670'
p162
(dp163
g9
F100.0
sg10
F4.0
sg11
F4.0
ssS'79671'
p164
(dp165
g9
F33.333333333333329
sg10
F3.0
sg11
F1.0
ssS'7963715'
p166
(dp167
g9
F100.0
sg10
F1.0
sg11
F1.0
ssS'79636'
p168
(dp169
g9
F100.0
sg10
F4.0
sg11
F4.0
ssS'790362'
p170
(dp171
g9
F33.333333333333329
sg10
F3.0
sg11
F1.0
ssS'79652'
p172
(dp173
g9
F50.0
sg10
F2.0
sg11
F1.0
ssS'79653'
p174
(dp175
g9
F80.0
sg10
F5.0
sg11
F4.0
ssS'79295'
p176
(dp177
g9
F100.0
sg10
F1.0
sg11
F1.0
ssS'79296'
p178
(dp179
g9
F100.0
sg10
F1.0
sg11
F1.0
ssS'79099'
p180
(dp181
g9
F87.5
sg10
F8.0
sg11
F7.0
ssS'79257'
p182
(dp183
g9
F50.0
sg10
F2.0
sg11
F1.0
ssS'790915'
p184
(dp185
g9
F100.0
sg10
F2.0
sg11
F2.0
ssS'790916'
p186
(dp187
g9
F100.0
sg10
F2.0
sg11
F2.0
ssS'790962'
p188
(dp189
g9
F100.0
sg10
F2.0
sg11
F2.0
ssS'790396'
p190
(dp191
g9
F100.0
sg10
F3.0
sg11
F3.0
ssS'79299'
p192
(dp193
g9
F50.0
sg10
F2.0
sg11
F1.0
ssS'79250'
p194
(dp195
g9
F100.0
sg10
F4.0
sg11
F4.0
ssS'796396'
p196
(dp197
g9
F100.0
sg10
F2.0
sg11
F2.0
ssS'79688'
p198
(dp199
g9
F0.0
sg10
F3.0
sg11
I0
ssS'79687'
p200
(dp201
g9
F100.0
sg10
F2.0
sg11
F2.0
ssS'79686'
p202
(dp203
g9
F0.0
sg10
F1.0
sg11
I0
ssS'796371'
p204
(dp205
g9
F100.0
sg10
F1.0
sg11
F1.0
ssS'790300'
p206
(dp207
g9
F0.0
sg10
F1.0
sg11
I0
ssS'796471'
p208
(dp209
g9
F50.0
sg10
F2.0
sg11
F1.0
ssS'796470'
p210
(dp211
g9
F50.0
sg10
F2.0
sg11
F1.0
ssS'790361'
p212
(dp213
g9
F100.0
sg10
F1.0
sg11
F1.0
ssS'796458'
p214
(dp215
g9
F0.0
sg10
F1.0
sg11
I0
ssS'796456'
p216
(dp217
g9
F0.0
sg10
F1.0
sg11
I0
ssS'796455'
p218
(dp219
g9
F100.0
sg10
F1.0
sg11
F1.0
ssS'79060'
p220
(dp221
g9
F100.0
sg10
F2.0
sg11
F2.0
ssS'796479'
p222
(dp223
g9
F0.0
sg10
F1.0
sg11
I0
ssS'796452'
p224
(dp225
g9
F100.0
sg10
F2.0
sg11
F2.0
ssS'796451'
p226
(dp227
g9
F0.0
sg10
F2.0
sg11
I0
ssS'790368'
p228
(dp229
g9
F100.0
sg10
F3.0
sg11
F3.0
ssS'7926'
p230
(dp231
g9
F65.957446808510639
sg10
F47.0
sg11
F31.0
ssS'792537'
p232
(dp233
g9
F0.0
sg10
F1.0
sg11
I0
ssg12
(dp234
g9
F64.799999999999997
sg10
F250.0
sg11
F162.0
ssS'790118'
p235
(dp236
g9
F0.0
sg10
F1.0
sg11
I0
ssS'79651'
p237
(dp238
g9
F75.0
sg10
F4.0
sg11
F3.0
ssS'792518'
p239
(dp240
g9
F100.0
sg10
F1.0
sg11
F1.0
ssS'792519'
p241
(dp242
g9
F0.0
sg10
F1.0
sg11
I0
ssS'796522'
p243
(dp244
g9
F0.0
sg10
F1.0
sg11
I0
ssS'790968'
p245
(dp246
g9
F100.0
sg10
F1.0
sg11
F1.0
ssS'79015'
p247
(dp248
g9
F71.428571428571431
sg10
F7.0
sg11
F5.0
ssS'79031'
p249
(dp250
g9
F57.142857142857139
sg10
F14.0
sg11
F8.0
ssS'79032'
p251
(dp252
g9
F58.82352941176471
sg10
F17.0
sg11
F10.0
ssS'790966'
p253
(dp254
g9
F100.0
sg10
F1.0
sg11
F1.0
ssS'79035'
p255
(dp256
g9
F53.846153846153847
sg10
F13.0
sg11
F7.0
ssS'790963'
p257
(dp258
g9
F66.666666666666657
sg10
F3.0
sg11
F2.0
ssS'79037'
p259
(dp260
g9
F50.0
sg10
F12.0
sg11
F6.0
ssS'79258'
p261
(dp262
g9
F50.0
sg10
F2.0
sg11
F1.0
ssS'796524'
p263
(dp264
g9
F100.0
sg10
F1.0
sg11
F1.0
ssS'796462'
p265
(dp266
g9
F0.0
sg10
F1.0
sg11
I0
ssS'796463'
p267
(dp268
g9
F50.0
sg10
F2.0
sg11
F1.0
ssS'79067'
p269
(dp270
g9
F70.0
sg10
F10.0
sg11
F7.0
ssS'79057'
p271
(dp272
g9
F42.857142857142854
sg10
F14.0
sg11
F6.0
ssS'79055'
p273
(dp274
g9
F60.0
sg10
F10.0
sg11
F6.0
ssS'796544'
p275
(dp276
g9
F100.0
sg10
F1.0
sg11
F1.0
sssg14
S'SOVIN3O'
p277
sg15
F501.0
ssS'4957883888'
p278
(dp279
g3
F34.0
sg4
F89.473684210526315
sg5
(dp280
g12
(dp281
g9
F89.473684210526315
sg10
F19.0
sg11
F17.0
ssg20
(dp282
g9
F89.473684210526315
sg10
F19.0
sg11
F17.0
sssg14
g278
sg15
F38.0
ssS'MAST'
p283
(dp284
g3
F2.0
sg4
F100.0
sg5
(dp285
g12
(dp286
g9
F100.0
sg10
F1.0
sg11
F1.0
ssg20
(dp287
g9
F100.0
sg10
F1.0
sg11
F1.0
sssg14
g283
sg15
F2.0
ssS'4957894587'
p288
(dp289
g3
F24.0
sg4
F92.307692307692307
sg5
(dp290
g12
(dp291
g9
F92.307692307692307
sg10
F13.0
sg11
F12.0
ssg20
(dp292
g9
F92.307692307692307
sg10
F13.0
sg11
F12.0
sssg14
g288
sg15
F26.0
ssS'4957873181'
p293
(dp294
g3
F22.0
sg4
F100.0
sg5
(dp295
g12
(dp296
g9
F100.0
sg10
F11.0
sg11
F11.0
ssg20
(dp297
g9
F100.0
sg10
F11.0
sg11
F11.0
sssg14
g293
sg15
F22.0
ssS'COMST'
p298
(dp299
g3
F358.0
sg4
F61.512027491408936
sg5
(dp300
S'791996'
p301
(dp302
g9
F100.0
sg10
F1.0
sg11
F1.0
ssg7
(dp303
g9
F59.090909090909093
sg10
F22.0
sg11
F13.0
ssS'79150'
p304
(dp305
g9
F100.0
sg10
F2.0
sg11
F2.0
ssg20
(dp306
g9
F60.606060606060609
sg10
F231.0
sg11
F140.0
ssS'7985'
p307
(dp308
g9
F60.0
sg10
F10.0
sg11
F6.0
ssg12
(dp309
g9
F61.512027491408936
sg10
F291.0
sg11
F179.0
ssS'79175'
p310
(dp311
g9
F100.0
sg10
F2.0
sg11
F2.0
ssS'79152'
p312
(dp313
g9
F0.0
sg10
F1.0
sg11
I0
ssS'79151'
p314
(dp315
g9
F100.0
sg10
F2.0
sg11
F2.0
ssS'791976'
p316
(dp317
g9
F100.0
sg10
F1.0
sg11
F1.0
ssS'7916'
p318
(dp319
g9
F63.157894736842103
sg10
F19.0
sg11
F12.0
sssg14
S'\xd0\x9c\xd0\xa2\xd0\xa1 (\xd0\x9a\xd0\x9e\xd0\x9c\xd0\xa1\xd0\xa2\xd0\x90\xd0\xa0) \xd0\xb7\xd0\xbe\xd0\xbd\xd0\xb0-\xd0\xb7\xd0\xbe\xd0\xbd\xd0\xb0'
p320
sg15
F582.0
ssS'COUNT'
p321
(dp322
g3
F10.0
sg4
F62.5
sg5
(dp323
g7
(dp324
g9
F100.0
sg10
F1.0
sg11
F1.0
ssg12
(dp325
g9
F62.5
sg10
F8.0
sg11
F5.0
ssg20
(dp326
g9
F57.142857142857139
sg10
F7.0
sg11
F4.0
sssg14
S'\xd0\x9a\xd0\xb0\xd0\xbd\xd1\x82\xd1\x80\xd0\xb8\xd0\x9a\xd0\xbe\xd0\xbc \xd0\xbc\xd0\xb5\xd1\x81\xd1\x82\xd0\xbd\xd0\xb0\xd1\x8f'
p327
sg15
F16.0
ssS'4995570600'
p328
(dp329
g3
F224.0
sg4
F29.512516469038207
sg5
(dp330
g230
(dp331
g9
F100.0
sg10
F1.0
sg11
F1.0
ssg20
(dp332
g9
F28.888888888888886
sg10
F315.0
sg11
F91.0
ssS'731'
p333
(dp334
g9
F33.333333333333329
sg10
F3.0
sg11
F1.0
ssS'7423'
p335
(dp336
g9
F50.0
sg10
F2.0
sg11
F1.0
ssg12
(dp337
g9
F29.629629629629626
sg10
F432.0
sg11
F128.0
ssg110
(dp338
g9
F0.0
sg10
F4.0
sg11
I0
ssS'375'
p339
(dp340
g9
F100.0
sg10
F2.0
sg11
F2.0
sssg14
S'4995570600'
p341
sg15
F759.0
ssS'4950000438'
p342
(dp343
g3
F18.0
sg4
F81.818181818181827
sg5
(dp344
g12
(dp345
g9
F81.818181818181827
sg10
F11.0
sg11
F9.0
ssg20
(dp346
g9
F81.818181818181827
sg10
F11.0
sg11
F9.0
sssg14
g342
sg15
F22.0
ssS'4956096817'
p347
(dp348
g3
F2.0
sg4
F100.0
sg5
(dp349
g12
(dp350
g9
F100.0
sg10
F1.0
sg11
F1.0
ssg20
(dp351
g9
F100.0
sg10
F1.0
sg11
F1.0
sssg14
g347
sg15
F2.0
ssS'4950000434'
p352
(dp353
g3
F24.0
sg4
F80.0
sg5
(dp354
g12
(dp355
g9
F80.0
sg10
F15.0
sg11
F12.0
ssg20
(dp356
g9
F80.0
sg10
F15.0
sg11
F12.0
sssg14
g352
sg15
F30.0
ssS'4950000456'
p357
(dp358
g3
F6.0
sg4
F60.0
sg5
(dp359
g12
(dp360
g9
F60.0
sg10
F5.0
sg11
F3.0
ssg20
(dp361
g9
F60.0
sg10
F5.0
sg11
F3.0
sssg14
g357
sg15
F10.0
ssS'4956096450'
p362
(dp363
g3
F6.0
sg4
F100.0
sg5
(dp364
g12
(dp365
g9
F100.0
sg10
F3.0
sg11
F3.0
ssg20
(dp366
g9
F100.0
sg10
F3.0
sg11
F3.0
sssg14
g362
sg15
F6.0
ssS'MGMN'
p367
(dp368
g3
F2.0
sg4
F100.0
sg5
(dp369
g12
(dp370
g9
F100.0
sg10
F1.0
sg11
F1.0
ssg20
(dp371
g9
F100.0
sg10
F1.0
sg11
F1.0
sssg14
g367
sg15
F2.0
ssS'4950000425'
p372
(dp373
g3
F10.0
sg4
F55.555555555555557
sg5
(dp374
g12
(dp375
g9
F55.555555555555557
sg10
F9.0
sg11
F5.0
ssg20
(dp376
g9
F55.555555555555557
sg10
F9.0
sg11
F5.0
sssg14
g372
sg15
F18.0
ssS'4956096615'
p377
(dp378
g3
F4.0
sg4
F100.0
sg5
(dp379
g12
(dp380
g9
F100.0
sg10
F2.0
sg11
F2.0
ssg20
(dp381
g9
F100.0
sg10
F2.0
sg11
F2.0
sssg14
g377
sg15
F4.0
ssS'4950000455'
p382
(dp383
g3
F12.0
sg4
F100.0
sg5
(dp384
g12
(dp385
g9
F100.0
sg10
F6.0
sg11
F6.0
ssg20
(dp386
g9
F100.0
sg10
F6.0
sg11
F6.0
sssg14
g382
sg15
F12.0
ssS'4957894433'
p387
(dp388
g3
F22.0
sg4
F100.0
sg5
(dp389
g12
(dp390
g9
F100.0
sg10
F11.0
sg11
F11.0
ssg20
(dp391
g9
F100.0
sg10
F11.0
sg11
F11.0
sssg14
g387
sg15
F22.0
ssS'4957894450'
p392
(dp393
g3
F2.0
sg4
F100.0
sg5
(dp394
g12
(dp395
g9
F100.0
sg10
F1.0
sg11
F1.0
ssg20
(dp396
g9
F100.0
sg10
F1.0
sg11
F1.0
sssg14
g392
sg15
F2.0
ssS'SI2'
p397
(dp398
g3
F5.0
sg4
F17.857142857142858
sg5
(dp399
g230
(dp400
g9
F0.0
sg10
F1.0
sg11
I0
ssS'49'
p401
(dp402
g9
F100.0
sg10
F1.0
sg11
F1.0
ssg114
(dp403
g9
F100.0
sg10
F1.0
sg11
F1.0
ssS'44'
p404
(dp405
g9
F66.666666666666657
sg10
F3.0
sg11
F2.0
ssg20
(dp406
g9
F0.0
sg10
F10.0
sg11
I0
ssg12
(dp407
g9
F0.0
sg10
F11.0
sg11
I0
ssS'371'
p408
(dp409
g9
F100.0
sg10
F1.0
sg11
F1.0
sssg14
S'SI2'
p410
sg15
F28.0
ssS'CAPIT'
p411
(dp412
g3
F84.0
sg4
F46.666666666666664
sg5
(dp413
S'7816'
p414
(dp415
g9
F100.0
sg10
F1.0
sg11
F1.0
ssg51
(dp416
g9
F100.0
sg10
F1.0
sg11
F1.0
ssS'38044'
p417
(dp418
g9
F0.0
sg10
F2.0
sg11
I0
ssg53
(dp419
g9
F0.0
sg10
F4.0
sg11
I0
ssS'74722'
p420
(dp421
g9
F100.0
sg10
F2.0
sg11
F2.0
ssg55
(dp422
g9
F100.0
sg10
F1.0
sg11
F1.0
ssS'7345'
p423
(dp424
g9
F100.0
sg10
F1.0
sg11
F1.0
ssg57
(dp425
g9
F0.0
sg10
F4.0
sg11
I0
ssS'739555'
p426
(dp427
g9
F100.0
sg10
F2.0
sg11
F2.0
ssS'781664'
p428
(dp429
g9
F100.0
sg10
F1.0
sg11
F1.0
ssg69
(dp430
g9
F0.0
sg10
F1.0
sg11
I0
ssS'78452'
p431
(dp432
g9
F100.0
sg10
F1.0
sg11
F1.0
ssS'7493'
p433
(dp434
g9
F0.0
sg10
F3.0
sg11
I0
ssg404
(dp435
g9
F100.0
sg10
F1.0
sg11
F1.0
ssg20
(dp436
g9
F5.8823529411764701
sg10
F17.0
sg11
F1.0
ssS'73452'
p437
(dp438
g9
F100.0
sg10
F1.0
sg11
F1.0
ssg12
(dp439
g9
F43.820224719101127
sg10
F89.0
sg11
F39.0
ssS'7471'
p440
(dp441
g9
F100.0
sg10
F1.0
sg11
F1.0
ssg80
(dp442
g9
F100.0
sg10
F4.0
sg11
F4.0
ssg84
(dp443
g9
F0.0
sg10
F1.0
sg11
I0
ssg86
(dp444
g9
F37.5
sg10
F8.0
sg11
F3.0
ssS'7395'
p445
(dp446
g9
F100.0
sg10
F2.0
sg11
F2.0
ssS'78632'
p447
(dp448
g9
F100.0
sg10
F1.0
sg11
F1.0
ssS'73472'
p449
(dp450
g9
F100.0
sg10
F1.0
sg11
F1.0
ssS'380'
p451
(dp452
g9
F66.666666666666657
sg10
F6.0
sg11
F4.0
ssg104
(dp453
g9
F66.666666666666657
sg10
F3.0
sg11
F2.0
ssg106
(dp454
g9
F75.0
sg10
F4.0
sg11
F3.0
ssS'7861'
p455
(dp456
g9
F33.333333333333329
sg10
F3.0
sg11
F1.0
ssS'7845'
p457
(dp458
g9
F100.0
sg10
F2.0
sg11
F2.0
ssS'7821'
p459
(dp460
g9
F100.0
sg10
F1.0
sg11
F1.0
ssS'74752'
p461
(dp462
g9
F75.0
sg10
F4.0
sg11
F3.0
ssg116
(dp463
g9
F0.0
sg10
F1.0
sg11
I0
ssS'74932'
p464
(dp465
g9
F0.0
sg10
F1.0
sg11
I0
ssg118
(dp466
g9
F50.0
sg10
F2.0
sg11
F1.0
ssg339
(dp467
g9
F100.0
sg10
F3.0
sg11
F3.0
sssg14
S'CAPIT'
p468
sg15
F180.0
ssS'MAKOM'
p469
(dp470
g3
F274.0
sg4
F70.256410256410248
sg5
(dp471
g180
(dp472
g9
F85.714285714285708
sg10
F7.0
sg11
F6.0
ssg160
(dp473
g9
F100.0
sg10
F2.0
sg11
F2.0
ssg162
(dp474
g9
F100.0
sg10
F1.0
sg11
F1.0
ssg164
(dp475
g9
F66.666666666666657
sg10
F3.0
sg11
F2.0
ssS'7963714'
p476
(dp477
g9
F100.0
sg10
F1.0
sg11
F1.0
ssg237
(dp478
g9
F0.0
sg10
F1.0
sg11
I0
ssg172
(dp479
g9
F100.0
sg10
F5.0
sg11
F5.0
ssg174
(dp480
g9
F100.0
sg10
F2.0
sg11
F2.0
ssS'790366'
p481
(dp482
g9
F50.0
sg10
F2.0
sg11
F1.0
ssg184
(dp483
g9
F0.0
sg10
F1.0
sg11
I0
ssg20
(dp484
g9
F50.0
sg10
F2.0
sg11
F1.0
ssg190
(dp485
g9
F100.0
sg10
F1.0
sg11
F1.0
ssS'790397'
p486
(dp487
g9
F100.0
sg10
F1.0
sg11
F1.0
ssS'790367'
p488
(dp489
g9
F100.0
sg10
F1.0
sg11
F1.0
ssS'791910'
p490
(dp491
g9
F0.0
sg10
F1.0
sg11
I0
ssS'79689'
p492
(dp493
g9
F100.0
sg10
F2.0
sg11
F2.0
ssg198
(dp494
g9
F75.0
sg10
F4.0
sg11
F3.0
ssg318
(dp495
g9
F64.444444444444443
sg10
F45.0
sg11
F29.0
ssS'791972'
p496
(dp497
g9
F100.0
sg10
F1.0
sg11
F1.0
ssS'79104'
p498
(dp499
g9
F70.0
sg10
F10.0
sg11
F7.0
ssg204
(dp500
g9
F100.0
sg10
F1.0
sg11
F1.0
ssS'790301'
p501
(dp502
g9
F100.0
sg10
F1.0
sg11
F1.0
ssg206
(dp503
g9
F100.0
sg10
F1.0
sg11
F1.0
ssg208
(dp504
g9
F100.0
sg10
F1.0
sg11
F1.0
ssg210
(dp505
g9
F0.0
sg10
F1.0
sg11
I0
ssg12
(dp506
g9
F69.791666666666657
sg10
F192.0
sg11
F134.0
ssg214
(dp507
g9
F0.0
sg10
F1.0
sg11
I0
ssS'796457'
p508
(dp509
g9
F100.0
sg10
F1.0
sg11
F1.0
ssg216
(dp510
g9
F100.0
sg10
F1.0
sg11
F1.0
ssg269
(dp511
g9
F100.0
sg10
F1.0
sg11
F1.0
ssS'796453'
p512
(dp513
g9
F100.0
sg10
F1.0
sg11
F1.0
ssg226
(dp514
g9
F0.0
sg10
F1.0
sg11
I0
ssg307
(dp515
g9
F62.5
sg10
F16.0
sg11
F10.0
ssg156
(dp516
g9
F50.0
sg10
F2.0
sg11
F1.0
ssg212
(dp517
g9
F0.0
sg10
F1.0
sg11
I0
ssS'796526'
p518
(dp519
g9
F100.0
sg10
F4.0
sg11
F4.0
ssg243
(dp520
g9
F100.0
sg10
F1.0
sg11
F1.0
ssg312
(dp521
g9
F75.0
sg10
F4.0
sg11
F3.0
ssg304
(dp522
g9
F100.0
sg10
F3.0
sg11
F3.0
ssg249
(dp523
g9
F75.0
sg10
F8.0
sg11
F6.0
ssg251
(dp524
g9
F71.428571428571431
sg10
F7.0
sg11
F5.0
ssS'79153'
p525
(dp526
g9
F100.0
sg10
F2.0
sg11
F2.0
ssg255
(dp527
g9
F44.444444444444443
sg10
F9.0
sg11
F4.0
ssg257
(dp528
g9
F100.0
sg10
F1.0
sg11
F1.0
ssg259
(dp529
g9
F90.0
sg10
F10.0
sg11
F9.0
ssS'790964'
p530
(dp531
g9
F100.0
sg10
F1.0
sg11
F1.0
ssg310
(dp532
g9
F100.0
sg10
F4.0
sg11
F4.0
ssg271
(dp533
g9
F55.555555555555557
sg10
F9.0
sg11
F5.0
ssg314
(dp534
g9
F40.0
sg10
F5.0
sg11
F2.0
ssg273
(dp535
g9
F60.0
sg10
F5.0
sg11
F3.0
ssS'79154'
p536
(dp537
g9
F100.0
sg10
F2.0
sg11
F2.0
sssg14
S'\xd0\x9c\xd0\xb0\xd0\xba\xd0\xbe\xd0\xbc\xd0\xbd\xd0\xb5\xd1\x82'
p538
sg15
F390.0
ssS'4990000461'
p539
(dp540
g3
F4.0
sg4
F100.0
sg5
(dp541
g12
(dp542
g9
F100.0
sg10
F2.0
sg11
F2.0
ssg20
(dp543
g9
F100.0
sg10
F2.0
sg11
F2.0
sssg14
g539
sg15
F4.0
ssS'SI'
p544
(dp545
g3
F468.0
sg4
F79.591836734693871
sg5
(dp546
S'74712'
p547
(dp548
g9
F100.0
sg10
F1.0
sg11
F1.0
ssg51
(dp549
g9
F25.0
sg10
F4.0
sg11
F1.0
ssg72
(dp550
g9
F0.0
sg10
F2.0
sg11
I0
ssg55
(dp551
g9
F0.0
sg10
F2.0
sg11
I0
ssg59
(dp552
g9
F0.0
sg10
F1.0
sg11
I0
ssg77
(dp553
g9
F100.0
sg10
F1.0
sg11
F1.0
ssS'7383'
p554
(dp555
g9
F100.0
sg10
F1.0
sg11
F1.0
ssg67
(dp556
g9
F0.0
sg10
F2.0
sg11
I0
ssS'7302'
p557
(dp558
g9
F100.0
sg10
F1.0
sg11
F1.0
ssg7
(dp559
g9
F62.5
sg10
F40.0
sg11
F25.0
ssg433
(dp560
g9
F100.0
sg10
F2.0
sg11
F2.0
ssg498
(dp561
g9
F0.0
sg10
F1.0
sg11
I0
ssg20
(dp562
g9
F87.0
sg10
F200.0
sg11
F174.0
ssg12
(dp563
g9
F79.194630872483216
sg10
F298.0
sg11
F236.0
ssg440
(dp564
g9
F100.0
sg10
F1.0
sg11
F1.0
ssg82
(dp565
g9
F100.0
sg10
F1.0
sg11
F1.0
ssg86
(dp566
g9
F100.0
sg10
F1.0
sg11
F1.0
ssg230
(dp567
g9
F75.0
sg10
F12.0
sg11
F9.0
ssS'7800'
p568
(dp569
g9
F100.0
sg10
F1.0
sg11
F1.0
ssS'73832'
p570
(dp571
g9
F100.0
sg10
F1.0
sg11
F1.0
ssS'73433'
p572
(dp573
g9
F0.0
sg10
F1.0
sg11
I0
ssg447
(dp574
g9
F100.0
sg10
F2.0
sg11
F2.0
ssg449
(dp575
g9
F0.0
sg10
F2.0
sg11
I0
ssg92
(dp576
g9
F100.0
sg10
F1.0
sg11
F1.0
ssS'998'
p577
(dp578
g9
F100.0
sg10
F1.0
sg11
F1.0
ssg106
(dp579
g9
F100.0
sg10
F2.0
sg11
F2.0
ssS'73022'
p580
(dp581
g9
F100.0
sg10
F1.0
sg11
F1.0
ssg461
(dp582
g9
F100.0
sg10
F1.0
sg11
F1.0
ssg464
(dp583
g9
F100.0
sg10
F2.0
sg11
F2.0
ssg408
(dp584
g9
F100.0
sg10
F1.0
sg11
F1.0
ssS'372'
p585
(dp586
g9
F100.0
sg10
F1.0
sg11
F1.0
sssg14
S'SI'
p587
sg15
F588.0
ssS'SOVIN'
p588
(dp589
g3
F38.0
sg4
F90.476190476190482
sg5
(dp590
g7
(dp591
g9
F100.0
sg10
F1.0
sg11
F1.0
ssg12
(dp592
g9
F90.476190476190482
sg10
F21.0
sg11
F19.0
ssg20
(dp593
g9
F90.0
sg10
F20.0
sg11
F18.0
sssg14
S'\xd0\x92\xd1\x8b\xd0\xbc\xd0\xbf\xd0\xb5\xd0\xbb\xd0\x9a\xd0\xbe\xd0\xbc \xd0\xb4\xd0\xbe\xd0\xb3.JF053'
p594
sg15
F42.0
ssS'4956096111'
p595
(dp596
g3
F2.0
sg4
F0.63694267515923575
sg5
(dp597
g12
(dp598
g9
F0.63694267515923575
sg10
F157.0
sg11
F1.0
ssg20
(dp599
g9
F0.63694267515923575
sg10
F157.0
sg11
F1.0
sssg14
g595
sg15
F314.0
ssS'MTRX'
p600
(dp601
g3
I0
sg4
F0.0
sg5
(dp602
g12
(dp603
g9
F0.0
sg10
F1.0
sg11
I0
ssg20
(dp604
g9
F0.0
sg10
F1.0
sg11
I0
sssg14
S'\xd0\x9c\xd0\xb0\xd1\x82\xd1\x80\xd0\xb8\xd0\xba\xd1\x81 \xd0\xa2\xd0\xb5\xd0\xbb\xd0\xb5\xd0\xba\xd0\xbe\xd0\xbc \xd0\xb7\xd0\xbe\xd0\xbd\xd0\xb0-\xd0\xb7\xd0\xbe\xd0\xbd\xd0\xb0'
p605
sg15
F2.0
ss.